ARM GAS  C:\Users\Virtual\AppData\Local\Temp\ccqBJhKz.s 			page 1


   1              		.syntax unified
   2              		.cpu cortex-m3
   3              		.fpu softvfp
   4              		.eabi_attribute 20, 1
   5              		.eabi_attribute 21, 1
   6              		.eabi_attribute 23, 3
   7              		.eabi_attribute 24, 1
   8              		.eabi_attribute 25, 1
   9              		.eabi_attribute 26, 1
  10              		.eabi_attribute 30, 1
  11              		.eabi_attribute 34, 1
  12              		.eabi_attribute 18, 4
  13              		.thumb
  14              		.syntax unified
  15              		.file	"main.c"
  16              		.text
  17              	.Ltext0:
  18              		.cfi_sections	.debug_frame
  19              		.global	__aeabi_f2d
  20              		.section	.text.transmit,"ax",%progbits
  21              		.align	2
  22              		.global	transmit
  23              		.thumb
  24              		.thumb_func
  25              		.type	transmit, %function
  26              	transmit:
  27              	.LFB64:
  28              		.file 1 "main.c"
   1:main.c        **** /* ========================================
   2:main.c        ****  *
   3:main.c        ****  * Copyright YOUR COMPANY, THE YEAR
   4:main.c        ****  * All Rights Reserved
   5:main.c        ****  * UNPUBLISHED, LICENSED SOFTWARE.
   6:main.c        ****  *
   7:main.c        ****  * CONFIDENTIAL AND PROPRIETARY INFORMATION
   8:main.c        ****  * WHICH IS THE PROPERTY OF your company.
   9:main.c        ****  *
  10:main.c        ****  * ========================================
  11:main.c        **** */
  12:main.c        **** #include <project.h>
  13:main.c        **** #include <string.h>
  14:main.c        **** #include <stdio.h>
  15:main.c        **** 
  16:main.c        **** void transmit(float input, int tab)
  17:main.c        **** {
  29              		.loc 1 17 0
  30              		.cfi_startproc
  31              		@ args = 0, pretend = 0, frame = 16
  32              		@ frame_needed = 0, uses_anonymous_args = 0
  33              	.LVL0:
  34 0000 00B5     		push	{lr}
  35              		.cfi_def_cfa_offset 4
  36              		.cfi_offset 14, -4
  37 0002 85B0     		sub	sp, sp, #20
  38              		.cfi_def_cfa_offset 24
  18:main.c        ****     char StringBuff[10];
  19:main.c        ****     // Verify if we have to put a tab or endl
ARM GAS  C:\Users\Virtual\AppData\Local\Temp\ccqBJhKz.s 			page 2


  20:main.c        ****     if(tab == 1)
  39              		.loc 1 20 0
  40 0004 0129     		cmp	r1, #1
  41 0006 08D1     		bne	.L2
  21:main.c        ****         sprintf(StringBuff, "%f\t", input);
  42              		.loc 1 21 0
  43 0008 FFF7FEFF 		bl	__aeabi_f2d
  44              	.LVL1:
  45 000c 0246     		mov	r2, r0
  46 000e 0B46     		mov	r3, r1
  47 0010 0949     		ldr	r1, .L5
  48 0012 01A8     		add	r0, sp, #4
  49 0014 FFF7FEFF 		bl	sprintf
  50              	.LVL2:
  51 0018 07E0     		b	.L3
  52              	.LVL3:
  53              	.L2:
  22:main.c        ****     // If it is a endl
  23:main.c        ****     else
  24:main.c        ****         sprintf(StringBuff, "%f\n", input);
  54              		.loc 1 24 0
  55 001a FFF7FEFF 		bl	__aeabi_f2d
  56              	.LVL4:
  57 001e 0246     		mov	r2, r0
  58 0020 0B46     		mov	r3, r1
  59 0022 0649     		ldr	r1, .L5+4
  60 0024 01A8     		add	r0, sp, #4
  61 0026 FFF7FEFF 		bl	sprintf
  62              	.LVL5:
  63              	.L3:
  25:main.c        ****     // Transmit string
  26:main.c        ****     UART_1_PutString(StringBuff);
  64              		.loc 1 26 0
  65 002a 01A8     		add	r0, sp, #4
  66 002c FFF7FEFF 		bl	UART_1_PutString
  67              	.LVL6:
  27:main.c        **** }
  68              		.loc 1 27 0
  69 0030 05B0     		add	sp, sp, #20
  70              		.cfi_def_cfa_offset 4
  71              		@ sp needed
  72 0032 5DF804FB 		ldr	pc, [sp], #4
  73              	.L6:
  74 0036 00BF     		.align	2
  75              	.L5:
  76 0038 00000000 		.word	.LC0
  77 003c 04000000 		.word	.LC1
  78              		.cfi_endproc
  79              	.LFE64:
  80              		.size	transmit, .-transmit
  81              		.global	__aeabi_dadd
  82              		.global	__aeabi_d2f
  83              		.section	.text.main,"ax",%progbits
  84              		.align	2
  85              		.global	main
  86              		.thumb
  87              		.thumb_func
ARM GAS  C:\Users\Virtual\AppData\Local\Temp\ccqBJhKz.s 			page 3


  88              		.type	main, %function
  89              	main:
  90              	.LFB65:
  28:main.c        **** 
  29:main.c        **** int main(void)
  30:main.c        **** {
  91              		.loc 1 30 0
  92              		.cfi_startproc
  93              		@ args = 0, pretend = 0, frame = 0
  94              		@ frame_needed = 0, uses_anonymous_args = 0
  95 0000 10B5     		push	{r4, lr}
  96              		.cfi_def_cfa_offset 8
  97              		.cfi_offset 4, -8
  98              		.cfi_offset 14, -4
  31:main.c        ****     CyGlobalIntEnable; /* Enable global interrupts. */
  99              		.loc 1 31 0
 100              		.syntax unified
 101              	@ 31 "main.c" 1
 102 0002 62B6     		CPSIE   i
 103              	@ 0 "" 2
  32:main.c        ****     UART_1_Start();     /* Enabling the UART */
 104              		.loc 1 32 0
 105              		.thumb
 106              		.syntax unified
 107 0004 FFF7FEFF 		bl	UART_1_Start
 108              	.LVL7:
  33:main.c        ****     
  34:main.c        ****     /* Place your initialization/startup code here (e.g. MyInst_Start()) */
  35:main.c        ****     float c = 0;
 109              		.loc 1 35 0
 110 0008 0024     		movs	r4, #0
 111              	.LVL8:
 112              	.L8:
  36:main.c        ****     for(;;)
  37:main.c        ****     {
  38:main.c        ****         /* Place your application code here. */
  39:main.c        ****         c += 0.1;
 113              		.loc 1 39 0 discriminator 1
 114 000a 2046     		mov	r0, r4
 115 000c FFF7FEFF 		bl	__aeabi_f2d
 116              	.LVL9:
 117 0010 07A3     		adr	r3, .L10
 118 0012 D3E90023 		ldrd	r2, [r3]
 119 0016 FFF7FEFF 		bl	__aeabi_dadd
 120              	.LVL10:
 121 001a FFF7FEFF 		bl	__aeabi_d2f
 122              	.LVL11:
 123 001e 0446     		mov	r4, r0
 124              	.LVL12:
  40:main.c        ****         transmit(c,0);
 125              		.loc 1 40 0 discriminator 1
 126 0020 0021     		movs	r1, #0
 127 0022 FFF7FEFF 		bl	transmit
 128              	.LVL13:
  41:main.c        ****         CyDelay(1000u);
 129              		.loc 1 41 0 discriminator 1
 130 0026 4FF47A70 		mov	r0, #1000
ARM GAS  C:\Users\Virtual\AppData\Local\Temp\ccqBJhKz.s 			page 4


 131 002a FFF7FEFF 		bl	CyDelay
 132              	.LVL14:
 133 002e ECE7     		b	.L8
 134              	.L11:
 135              		.align	3
 136              	.L10:
 137 0030 9A999999 		.word	-1717986918
 138 0034 9999B93F 		.word	1069128089
 139              		.cfi_endproc
 140              	.LFE65:
 141              		.size	main, .-main
 142              		.section	.rodata.str1.4,"aMS",%progbits,1
 143              		.align	2
 144              	.LC0:
 145 0000 25660900 		.ascii	"%f\011\000"
 146              	.LC1:
 147 0004 25660A00 		.ascii	"%f\012\000"
 148              		.text
 149              	.Letext0:
 150              		.file 2 "c:\\program files (x86)\\cypress\\psoc creator\\4.2\\psoc creator\\import\\gnu\\arm\\5.4.
 151              		.file 3 "c:\\program files (x86)\\cypress\\psoc creator\\4.2\\psoc creator\\import\\gnu\\arm\\5.4.
 152              		.file 4 "c:\\program files (x86)\\cypress\\psoc creator\\4.2\\psoc creator\\import\\gnu\\arm\\5.4.
 153              		.file 5 "Generated_Source\\PSoC5/UART_1.h"
 154              		.file 6 "Generated_Source\\PSoC5/CyLib.h"
 155              		.file 7 "Generated_Source\\PSoC5/core_cm3.h"