ARM GAS  C:\Users\diego\AppData\Local\Temp\ccFAUQV6.s 			page 1


   1              		.syntax unified
   2              		.cpu cortex-m3
   3              		.fpu softvfp
   4              		.eabi_attribute 20, 1
   5              		.eabi_attribute 21, 1
   6              		.eabi_attribute 23, 3
   7              		.eabi_attribute 24, 1
   8              		.eabi_attribute 25, 1
   9              		.eabi_attribute 26, 1
  10              		.eabi_attribute 30, 6
  11              		.eabi_attribute 34, 1
  12              		.eabi_attribute 18, 4
  13              		.thumb
  14              		.syntax unified
  15              		.file	"LCD_BarGraph.c"
  16              		.text
  17              	.Ltext0:
  18              		.cfi_sections	.debug_frame
  19              		.global	LCD_customFonts
  20              		.section	.rodata
  21              		.align	2
  22              		.type	LCD_customFonts, %object
  23              		.size	LCD_customFonts, 64
  24              	LCD_customFonts:
  25 0000 00       		.byte	0
  26 0001 00       		.byte	0
  27 0002 00       		.byte	0
  28 0003 00       		.byte	0
  29 0004 00       		.byte	0
  30 0005 00       		.byte	0
  31 0006 00       		.byte	0
  32 0007 1F       		.byte	31
  33 0008 00       		.byte	0
  34 0009 00       		.byte	0
  35 000a 00       		.byte	0
  36 000b 00       		.byte	0
  37 000c 00       		.byte	0
  38 000d 00       		.byte	0
  39 000e 1F       		.byte	31
  40 000f 1F       		.byte	31
  41 0010 00       		.byte	0
  42 0011 00       		.byte	0
  43 0012 00       		.byte	0
  44 0013 00       		.byte	0
  45 0014 00       		.byte	0
  46 0015 1F       		.byte	31
  47 0016 1F       		.byte	31
  48 0017 1F       		.byte	31
  49 0018 00       		.byte	0
  50 0019 00       		.byte	0
  51 001a 00       		.byte	0
  52 001b 00       		.byte	0
  53 001c 1F       		.byte	31
  54 001d 1F       		.byte	31
  55 001e 1F       		.byte	31
  56 001f 1F       		.byte	31
  57 0020 00       		.byte	0
ARM GAS  C:\Users\diego\AppData\Local\Temp\ccFAUQV6.s 			page 2


  58 0021 00       		.byte	0
  59 0022 00       		.byte	0
  60 0023 1F       		.byte	31
  61 0024 1F       		.byte	31
  62 0025 1F       		.byte	31
  63 0026 1F       		.byte	31
  64 0027 1F       		.byte	31
  65 0028 00       		.byte	0
  66 0029 00       		.byte	0
  67 002a 1F       		.byte	31
  68 002b 1F       		.byte	31
  69 002c 1F       		.byte	31
  70 002d 1F       		.byte	31
  71 002e 1F       		.byte	31
  72 002f 1F       		.byte	31
  73 0030 00       		.byte	0
  74 0031 1F       		.byte	31
  75 0032 1F       		.byte	31
  76 0033 1F       		.byte	31
  77 0034 1F       		.byte	31
  78 0035 1F       		.byte	31
  79 0036 1F       		.byte	31
  80 0037 1F       		.byte	31
  81 0038 1F       		.byte	31
  82 0039 1F       		.byte	31
  83 003a 1F       		.byte	31
  84 003b 1F       		.byte	31
  85 003c 1F       		.byte	31
  86 003d 1F       		.byte	31
  87 003e 1F       		.byte	31
  88 003f 1F       		.byte	31
  89              		.section	.text.LCD_LoadCustomFonts,"ax",%progbits
  90              		.align	2
  91              		.global	LCD_LoadCustomFonts
  92              		.thumb
  93              		.thumb_func
  94              		.type	LCD_LoadCustomFonts, %function
  95              	LCD_LoadCustomFonts:
  96              	.LFB0:
  97              		.file 1 "Generated_Source\\PSoC5\\LCD_BarGraph.c"
   1:Generated_Source\PSoC5/LCD_BarGraph.c **** /*******************************************************************************
   2:Generated_Source\PSoC5/LCD_BarGraph.c **** * File Name: LCD_BarGraph.c
   3:Generated_Source\PSoC5/LCD_BarGraph.c **** * Version 2.20
   4:Generated_Source\PSoC5/LCD_BarGraph.c **** *
   5:Generated_Source\PSoC5/LCD_BarGraph.c **** * Description:
   6:Generated_Source\PSoC5/LCD_BarGraph.c **** *  This file provides the custom character data and API for creating and using
   7:Generated_Source\PSoC5/LCD_BarGraph.c **** *  bar graphs with the Character LCD component.
   8:Generated_Source\PSoC5/LCD_BarGraph.c **** *
   9:Generated_Source\PSoC5/LCD_BarGraph.c **** * Note:
  10:Generated_Source\PSoC5/LCD_BarGraph.c **** *
  11:Generated_Source\PSoC5/LCD_BarGraph.c **** ********************************************************************************
  12:Generated_Source\PSoC5/LCD_BarGraph.c **** * Copyright 2008-2014, Cypress Semiconductor Corporation.  All rights reserved.
  13:Generated_Source\PSoC5/LCD_BarGraph.c **** * You may use this file only in accordance with the license, terms, conditions,
  14:Generated_Source\PSoC5/LCD_BarGraph.c **** * disclaimers, and limitations in the end user license agreement accompanying
  15:Generated_Source\PSoC5/LCD_BarGraph.c **** * the software package with which this file was provided.
  16:Generated_Source\PSoC5/LCD_BarGraph.c **** *******************************************************************************/
  17:Generated_Source\PSoC5/LCD_BarGraph.c **** 
ARM GAS  C:\Users\diego\AppData\Local\Temp\ccFAUQV6.s 			page 3


  18:Generated_Source\PSoC5/LCD_BarGraph.c **** #include "LCD.h"
  19:Generated_Source\PSoC5/LCD_BarGraph.c **** 
  20:Generated_Source\PSoC5/LCD_BarGraph.c **** 
  21:Generated_Source\PSoC5/LCD_BarGraph.c **** uint8 const CYCODE LCD_customFonts[] = \
  22:Generated_Source\PSoC5/LCD_BarGraph.c **** {
  23:Generated_Source\PSoC5/LCD_BarGraph.c ****     /* Character LCD_CUSTOM_0   */
  24:Generated_Source\PSoC5/LCD_BarGraph.c ****     0x00u,    0x00u,    0x00u,    0x00u,    0x00u,    0x00u,    0x00u,    0x1Fu, \
  25:Generated_Source\PSoC5/LCD_BarGraph.c ****     /* Character LCD_CUSTOM_1   */
  26:Generated_Source\PSoC5/LCD_BarGraph.c ****     0x00u,    0x00u,    0x00u,    0x00u,    0x00u,    0x00u,    0x1Fu,    0x1Fu, \
  27:Generated_Source\PSoC5/LCD_BarGraph.c ****     /* Character LCD_CUSTOM_2   */
  28:Generated_Source\PSoC5/LCD_BarGraph.c ****     0x00u,    0x00u,    0x00u,    0x00u,    0x00u,    0x1Fu,    0x1Fu,    0x1Fu, \
  29:Generated_Source\PSoC5/LCD_BarGraph.c ****     /* Character LCD_CUSTOM_3   */
  30:Generated_Source\PSoC5/LCD_BarGraph.c ****     0x00u,    0x00u,    0x00u,    0x00u,    0x1Fu,    0x1Fu,    0x1Fu,    0x1Fu, \
  31:Generated_Source\PSoC5/LCD_BarGraph.c ****     /* Character LCD_CUSTOM_4   */
  32:Generated_Source\PSoC5/LCD_BarGraph.c ****     0x00u,    0x00u,    0x00u,    0x1Fu,    0x1Fu,    0x1Fu,    0x1Fu,    0x1Fu, \
  33:Generated_Source\PSoC5/LCD_BarGraph.c ****     /* Character LCD_CUSTOM_5   */
  34:Generated_Source\PSoC5/LCD_BarGraph.c ****     0x00u,    0x00u,    0x1Fu,    0x1Fu,    0x1Fu,    0x1Fu,    0x1Fu,    0x1Fu, \
  35:Generated_Source\PSoC5/LCD_BarGraph.c ****     /* Character LCD_CUSTOM_6   */
  36:Generated_Source\PSoC5/LCD_BarGraph.c ****     0x00u,    0x1Fu,    0x1Fu,    0x1Fu,    0x1Fu,    0x1Fu,    0x1Fu,    0x1Fu, \
  37:Generated_Source\PSoC5/LCD_BarGraph.c ****     /* Character LCD_CUSTOM_7   */
  38:Generated_Source\PSoC5/LCD_BarGraph.c ****     0x1Fu,    0x1Fu,    0x1Fu,    0x1Fu,    0x1Fu,    0x1Fu,    0x1Fu,    0x1Fu \
  39:Generated_Source\PSoC5/LCD_BarGraph.c **** };
  40:Generated_Source\PSoC5/LCD_BarGraph.c **** 
  41:Generated_Source\PSoC5/LCD_BarGraph.c **** 
  42:Generated_Source\PSoC5/LCD_BarGraph.c **** /*******************************************************************************
  43:Generated_Source\PSoC5/LCD_BarGraph.c **** * Function Name: LCD_LoadCustomFonts
  44:Generated_Source\PSoC5/LCD_BarGraph.c **** ********************************************************************************
  45:Generated_Source\PSoC5/LCD_BarGraph.c **** *
  46:Generated_Source\PSoC5/LCD_BarGraph.c **** * Summary:
  47:Generated_Source\PSoC5/LCD_BarGraph.c **** *  Loads 8 custom font characters into the LCD Module for use.  Cannot use
  48:Generated_Source\PSoC5/LCD_BarGraph.c **** *  characters from two different font sets at once, but font sets can be
  49:Generated_Source\PSoC5/LCD_BarGraph.c **** *  switched out during runtime.
  50:Generated_Source\PSoC5/LCD_BarGraph.c **** *
  51:Generated_Source\PSoC5/LCD_BarGraph.c **** * Parameters:
  52:Generated_Source\PSoC5/LCD_BarGraph.c **** *  customData:  pointer to a constant array of 64 bytes representing 8 custom
  53:Generated_Source\PSoC5/LCD_BarGraph.c **** *               font characters.
  54:Generated_Source\PSoC5/LCD_BarGraph.c **** * Return:
  55:Generated_Source\PSoC5/LCD_BarGraph.c **** *  None.
  56:Generated_Source\PSoC5/LCD_BarGraph.c **** *
  57:Generated_Source\PSoC5/LCD_BarGraph.c **** * Theory:
  58:Generated_Source\PSoC5/LCD_BarGraph.c **** *  Prior to using this function user need to import the pointer to custom
  59:Generated_Source\PSoC5/LCD_BarGraph.c **** *  font array to your project by writting the following in the source code file
  60:Generated_Source\PSoC5/LCD_BarGraph.c **** *  where custom font will be used:
  61:Generated_Source\PSoC5/LCD_BarGraph.c **** *       extern uint8 const CYCODE LCD_Char_customFonts[];
  62:Generated_Source\PSoC5/LCD_BarGraph.c **** *  This function is not automatically called by the Start() routine and must be
  63:Generated_Source\PSoC5/LCD_BarGraph.c **** *  called manually by the user.
  64:Generated_Source\PSoC5/LCD_BarGraph.c **** *******************************************************************************/
  65:Generated_Source\PSoC5/LCD_BarGraph.c **** void LCD_LoadCustomFonts(uint8 const customData[]) 
  66:Generated_Source\PSoC5/LCD_BarGraph.c **** {
  98              		.loc 1 66 0
  99              		.cfi_startproc
 100              		@ args = 0, pretend = 0, frame = 16
 101              		@ frame_needed = 1, uses_anonymous_args = 0
 102 0000 80B5     		push	{r7, lr}
 103              		.cfi_def_cfa_offset 8
 104              		.cfi_offset 7, -8
 105              		.cfi_offset 14, -4
ARM GAS  C:\Users\diego\AppData\Local\Temp\ccFAUQV6.s 			page 4


 106 0002 84B0     		sub	sp, sp, #16
 107              		.cfi_def_cfa_offset 24
 108 0004 00AF     		add	r7, sp, #0
 109              		.cfi_def_cfa_register 7
 110 0006 7860     		str	r0, [r7, #4]
  67:Generated_Source\PSoC5/LCD_BarGraph.c ****     uint8 indexU8;
  68:Generated_Source\PSoC5/LCD_BarGraph.c **** 
  69:Generated_Source\PSoC5/LCD_BarGraph.c ****     LCD_IsReady();
 111              		.loc 1 69 0
 112 0008 FFF7FEFF 		bl	LCD_IsReady
  70:Generated_Source\PSoC5/LCD_BarGraph.c ****     /* Set starting address in the LCD Module */
  71:Generated_Source\PSoC5/LCD_BarGraph.c ****     /* Optionally: Read the current address to restore at a later time */
  72:Generated_Source\PSoC5/LCD_BarGraph.c ****     LCD_WriteControl(LCD_CGRAM_0);
 113              		.loc 1 72 0
 114 000c 4020     		movs	r0, #64
 115 000e FFF7FEFF 		bl	LCD_WriteControl
  73:Generated_Source\PSoC5/LCD_BarGraph.c **** 
  74:Generated_Source\PSoC5/LCD_BarGraph.c ****     /* Load in the 64 bytes of CustomChar Data */
  75:Generated_Source\PSoC5/LCD_BarGraph.c ****     for(indexU8 = 0u; indexU8 < LCD_CUSTOM_CHAR_SET_LEN; indexU8++)
 116              		.loc 1 75 0
 117 0012 0023     		movs	r3, #0
 118 0014 FB73     		strb	r3, [r7, #15]
 119 0016 09E0     		b	.L2
 120              	.L3:
  76:Generated_Source\PSoC5/LCD_BarGraph.c ****     {
  77:Generated_Source\PSoC5/LCD_BarGraph.c ****         /* Delay between each write */
  78:Generated_Source\PSoC5/LCD_BarGraph.c ****         LCD_WriteData(customData[indexU8]);
 121              		.loc 1 78 0 discriminator 3
 122 0018 FB7B     		ldrb	r3, [r7, #15]	@ zero_extendqisi2
 123 001a 7A68     		ldr	r2, [r7, #4]
 124 001c 1344     		add	r3, r3, r2
 125 001e 1B78     		ldrb	r3, [r3]	@ zero_extendqisi2
 126 0020 1846     		mov	r0, r3
 127 0022 FFF7FEFF 		bl	LCD_WriteData
  75:Generated_Source\PSoC5/LCD_BarGraph.c ****     {
 128              		.loc 1 75 0 discriminator 3
 129 0026 FB7B     		ldrb	r3, [r7, #15]	@ zero_extendqisi2
 130 0028 0133     		adds	r3, r3, #1
 131 002a FB73     		strb	r3, [r7, #15]
 132              	.L2:
  75:Generated_Source\PSoC5/LCD_BarGraph.c ****     {
 133              		.loc 1 75 0 is_stmt 0 discriminator 1
 134 002c FB7B     		ldrb	r3, [r7, #15]	@ zero_extendqisi2
 135 002e 3F2B     		cmp	r3, #63
 136 0030 F2D9     		bls	.L3
  79:Generated_Source\PSoC5/LCD_BarGraph.c ****     }
  80:Generated_Source\PSoC5/LCD_BarGraph.c **** 
  81:Generated_Source\PSoC5/LCD_BarGraph.c ****     LCD_IsReady();
 137              		.loc 1 81 0 is_stmt 1
 138 0032 FFF7FEFF 		bl	LCD_IsReady
  82:Generated_Source\PSoC5/LCD_BarGraph.c ****     LCD_WriteControl(LCD_DDRAM_0);
 139              		.loc 1 82 0
 140 0036 8020     		movs	r0, #128
 141 0038 FFF7FEFF 		bl	LCD_WriteControl
  83:Generated_Source\PSoC5/LCD_BarGraph.c **** }
 142              		.loc 1 83 0
 143 003c 00BF     		nop
ARM GAS  C:\Users\diego\AppData\Local\Temp\ccFAUQV6.s 			page 5


 144 003e 1037     		adds	r7, r7, #16
 145              		.cfi_def_cfa_offset 8
 146 0040 BD46     		mov	sp, r7
 147              		.cfi_def_cfa_register 13
 148              		@ sp needed
 149 0042 80BD     		pop	{r7, pc}
 150              		.cfi_endproc
 151              	.LFE0:
 152              		.size	LCD_LoadCustomFonts, .-LCD_LoadCustomFonts
 153              		.section	.text.LCD_DrawVerticalBG,"ax",%progbits
 154              		.align	2
 155              		.global	LCD_DrawVerticalBG
 156              		.thumb
 157              		.thumb_func
 158              		.type	LCD_DrawVerticalBG, %function
 159              	LCD_DrawVerticalBG:
 160              	.LFB1:
  84:Generated_Source\PSoC5/LCD_BarGraph.c **** 
  85:Generated_Source\PSoC5/LCD_BarGraph.c **** 
  86:Generated_Source\PSoC5/LCD_BarGraph.c **** #if (LCD_CUSTOM_CHAR_SET == LCD_HORIZONTAL_BG)
  87:Generated_Source\PSoC5/LCD_BarGraph.c **** 
  88:Generated_Source\PSoC5/LCD_BarGraph.c ****     /*******************************************************************************
  89:Generated_Source\PSoC5/LCD_BarGraph.c ****     * Function Name: LCD_DrawHorizontalBG
  90:Generated_Source\PSoC5/LCD_BarGraph.c ****     ********************************************************************************
  91:Generated_Source\PSoC5/LCD_BarGraph.c ****     *
  92:Generated_Source\PSoC5/LCD_BarGraph.c ****     * Summary:
  93:Generated_Source\PSoC5/LCD_BarGraph.c ****     *  Draws the horizontal bargraph.
  94:Generated_Source\PSoC5/LCD_BarGraph.c ****     *
  95:Generated_Source\PSoC5/LCD_BarGraph.c ****     * Parameters:
  96:Generated_Source\PSoC5/LCD_BarGraph.c ****     *  row:            The row in which the bar graph starts.
  97:Generated_Source\PSoC5/LCD_BarGraph.c ****     *  column:         The column in which the bar graph starts.
  98:Generated_Source\PSoC5/LCD_BarGraph.c ****     *  maxCharacters:  The max length of the graph in whole characters.
  99:Generated_Source\PSoC5/LCD_BarGraph.c ****     *  value:          The current length or height of the graph in pixels.
 100:Generated_Source\PSoC5/LCD_BarGraph.c ****     *
 101:Generated_Source\PSoC5/LCD_BarGraph.c ****     * Return:
 102:Generated_Source\PSoC5/LCD_BarGraph.c ****     *  void.
 103:Generated_Source\PSoC5/LCD_BarGraph.c ****     *
 104:Generated_Source\PSoC5/LCD_BarGraph.c ****     *******************************************************************************/
 105:Generated_Source\PSoC5/LCD_BarGraph.c ****     void LCD_DrawHorizontalBG(uint8 row, uint8 column, uint8 maxCharacters, uint8 value) \
 106:Generated_Source\PSoC5/LCD_BarGraph.c ****                                                             
 107:Generated_Source\PSoC5/LCD_BarGraph.c ****     {
 108:Generated_Source\PSoC5/LCD_BarGraph.c ****         /* 8-bit Counter */
 109:Generated_Source\PSoC5/LCD_BarGraph.c ****         uint8 count8;
 110:Generated_Source\PSoC5/LCD_BarGraph.c ****         uint8 fullChars;
 111:Generated_Source\PSoC5/LCD_BarGraph.c ****         uint8 remainingPixels;
 112:Generated_Source\PSoC5/LCD_BarGraph.c **** 
 113:Generated_Source\PSoC5/LCD_BarGraph.c ****         /* Number of full characters to draw */
 114:Generated_Source\PSoC5/LCD_BarGraph.c ****         fullChars = value / LCD_CHARACTER_WIDTH;
 115:Generated_Source\PSoC5/LCD_BarGraph.c **** 
 116:Generated_Source\PSoC5/LCD_BarGraph.c ****         /* Number of remaining pixels to draw */
 117:Generated_Source\PSoC5/LCD_BarGraph.c ****         remainingPixels = value % LCD_CHARACTER_WIDTH;
 118:Generated_Source\PSoC5/LCD_BarGraph.c **** 
 119:Generated_Source\PSoC5/LCD_BarGraph.c ****         /* Ensure that the maximum character limit is followed. */
 120:Generated_Source\PSoC5/LCD_BarGraph.c ****         if(fullChars >= maxCharacters)
 121:Generated_Source\PSoC5/LCD_BarGraph.c ****         {
 122:Generated_Source\PSoC5/LCD_BarGraph.c ****             fullChars = maxCharacters;
 123:Generated_Source\PSoC5/LCD_BarGraph.c ****         }
ARM GAS  C:\Users\diego\AppData\Local\Temp\ccFAUQV6.s 			page 6


 124:Generated_Source\PSoC5/LCD_BarGraph.c **** 
 125:Generated_Source\PSoC5/LCD_BarGraph.c ****         /* Put Cursor at start position */
 126:Generated_Source\PSoC5/LCD_BarGraph.c ****         LCD_Position(row, column);
 127:Generated_Source\PSoC5/LCD_BarGraph.c **** 
 128:Generated_Source\PSoC5/LCD_BarGraph.c ****         /* Write full characters */
 129:Generated_Source\PSoC5/LCD_BarGraph.c ****         for(count8 = 0u; count8 < fullChars; count8++)
 130:Generated_Source\PSoC5/LCD_BarGraph.c ****         {
 131:Generated_Source\PSoC5/LCD_BarGraph.c ****             LCD_WriteData(LCD_CUSTOM_5);
 132:Generated_Source\PSoC5/LCD_BarGraph.c ****         }
 133:Generated_Source\PSoC5/LCD_BarGraph.c **** 
 134:Generated_Source\PSoC5/LCD_BarGraph.c ****         if(fullChars < maxCharacters)
 135:Generated_Source\PSoC5/LCD_BarGraph.c ****         {
 136:Generated_Source\PSoC5/LCD_BarGraph.c ****             /* Write remaining pixels */
 137:Generated_Source\PSoC5/LCD_BarGraph.c ****             LCD_WriteData(remainingPixels);
 138:Generated_Source\PSoC5/LCD_BarGraph.c **** 
 139:Generated_Source\PSoC5/LCD_BarGraph.c ****             if(fullChars < (maxCharacters - 1u))
 140:Generated_Source\PSoC5/LCD_BarGraph.c ****             {
 141:Generated_Source\PSoC5/LCD_BarGraph.c ****                 /* Fill with whitespace to end of bar graph */
 142:Generated_Source\PSoC5/LCD_BarGraph.c ****                 for(count8 = 0u; count8 < (maxCharacters - fullChars - 1u); count8++)
 143:Generated_Source\PSoC5/LCD_BarGraph.c ****                 {
 144:Generated_Source\PSoC5/LCD_BarGraph.c ****                     LCD_WriteData(LCD_CUSTOM_0);
 145:Generated_Source\PSoC5/LCD_BarGraph.c ****                 }
 146:Generated_Source\PSoC5/LCD_BarGraph.c ****             }
 147:Generated_Source\PSoC5/LCD_BarGraph.c ****         }
 148:Generated_Source\PSoC5/LCD_BarGraph.c ****     }
 149:Generated_Source\PSoC5/LCD_BarGraph.c **** 
 150:Generated_Source\PSoC5/LCD_BarGraph.c **** #endif /* LCD_CUSTOM_CHAR_SET == LCD_HORIZONTAL_BG */
 151:Generated_Source\PSoC5/LCD_BarGraph.c **** 
 152:Generated_Source\PSoC5/LCD_BarGraph.c **** 
 153:Generated_Source\PSoC5/LCD_BarGraph.c **** #if (LCD_CUSTOM_CHAR_SET == LCD_VERTICAL_BG)
 154:Generated_Source\PSoC5/LCD_BarGraph.c **** 
 155:Generated_Source\PSoC5/LCD_BarGraph.c ****     /*******************************************************************************
 156:Generated_Source\PSoC5/LCD_BarGraph.c ****     *  Function Name: LCD_DrawVerticalBG
 157:Generated_Source\PSoC5/LCD_BarGraph.c ****     ********************************************************************************
 158:Generated_Source\PSoC5/LCD_BarGraph.c ****     *
 159:Generated_Source\PSoC5/LCD_BarGraph.c ****     * Summary:
 160:Generated_Source\PSoC5/LCD_BarGraph.c ****     *  Draws the vertical bargraph.
 161:Generated_Source\PSoC5/LCD_BarGraph.c ****     *
 162:Generated_Source\PSoC5/LCD_BarGraph.c ****     * Parameters:
 163:Generated_Source\PSoC5/LCD_BarGraph.c ****     *  row:            The row in which the bar graph starts.
 164:Generated_Source\PSoC5/LCD_BarGraph.c ****     *  column:         The column in which the bar graph starts.
 165:Generated_Source\PSoC5/LCD_BarGraph.c ****     *  maxCharacters:  The max height of the graph in whole characters.
 166:Generated_Source\PSoC5/LCD_BarGraph.c ****     *  value:          The current length or height of the graph in pixels.
 167:Generated_Source\PSoC5/LCD_BarGraph.c ****     *
 168:Generated_Source\PSoC5/LCD_BarGraph.c ****     * Return:
 169:Generated_Source\PSoC5/LCD_BarGraph.c ****     *  void.
 170:Generated_Source\PSoC5/LCD_BarGraph.c ****     *
 171:Generated_Source\PSoC5/LCD_BarGraph.c ****     *******************************************************************************/
 172:Generated_Source\PSoC5/LCD_BarGraph.c ****     void LCD_DrawVerticalBG(uint8 row, uint8 column, uint8 maxCharacters, uint8 value) \
 173:Generated_Source\PSoC5/LCD_BarGraph.c ****                                                             
 174:Generated_Source\PSoC5/LCD_BarGraph.c ****     {
 161              		.loc 1 174 0
 162              		.cfi_startproc
 163              		@ args = 0, pretend = 0, frame = 16
 164              		@ frame_needed = 1, uses_anonymous_args = 0
 165 0000 90B5     		push	{r4, r7, lr}
 166              		.cfi_def_cfa_offset 12
ARM GAS  C:\Users\diego\AppData\Local\Temp\ccFAUQV6.s 			page 7


 167              		.cfi_offset 4, -12
 168              		.cfi_offset 7, -8
 169              		.cfi_offset 14, -4
 170 0002 85B0     		sub	sp, sp, #20
 171              		.cfi_def_cfa_offset 32
 172 0004 00AF     		add	r7, sp, #0
 173              		.cfi_def_cfa_register 7
 174 0006 0446     		mov	r4, r0
 175 0008 0846     		mov	r0, r1
 176 000a 1146     		mov	r1, r2
 177 000c 1A46     		mov	r2, r3
 178 000e 2346     		mov	r3, r4
 179 0010 FB71     		strb	r3, [r7, #7]
 180 0012 0346     		mov	r3, r0
 181 0014 BB71     		strb	r3, [r7, #6]
 182 0016 0B46     		mov	r3, r1
 183 0018 7B71     		strb	r3, [r7, #5]
 184 001a 1346     		mov	r3, r2
 185 001c 3B71     		strb	r3, [r7, #4]
 175:Generated_Source\PSoC5/LCD_BarGraph.c ****         /* 8-bit Counter */
 176:Generated_Source\PSoC5/LCD_BarGraph.c ****         uint8 count8 = 0u;
 186              		.loc 1 176 0
 187 001e 0023     		movs	r3, #0
 188 0020 FB73     		strb	r3, [r7, #15]
 177:Generated_Source\PSoC5/LCD_BarGraph.c ****         /* Current Row Tracker */
 178:Generated_Source\PSoC5/LCD_BarGraph.c ****         int8 currentRow;
 179:Generated_Source\PSoC5/LCD_BarGraph.c ****         uint8 fullChars;
 180:Generated_Source\PSoC5/LCD_BarGraph.c ****         uint8 remainingPixels;
 181:Generated_Source\PSoC5/LCD_BarGraph.c **** 
 182:Generated_Source\PSoC5/LCD_BarGraph.c ****         /* Number of full characters to draw */
 183:Generated_Source\PSoC5/LCD_BarGraph.c ****         fullChars = value / LCD_CHARACTER_HEIGHT;
 189              		.loc 1 183 0
 190 0022 3B79     		ldrb	r3, [r7, #4]	@ zero_extendqisi2
 191 0024 DB08     		lsrs	r3, r3, #3
 192 0026 7B73     		strb	r3, [r7, #13]
 184:Generated_Source\PSoC5/LCD_BarGraph.c **** 
 185:Generated_Source\PSoC5/LCD_BarGraph.c ****         /* Number of remaining pixels to draw */
 186:Generated_Source\PSoC5/LCD_BarGraph.c ****         remainingPixels = value % LCD_CHARACTER_HEIGHT;
 193              		.loc 1 186 0
 194 0028 3B79     		ldrb	r3, [r7, #4]
 195 002a 03F00703 		and	r3, r3, #7
 196 002e 3B73     		strb	r3, [r7, #12]
 187:Generated_Source\PSoC5/LCD_BarGraph.c **** 
 188:Generated_Source\PSoC5/LCD_BarGraph.c ****         /* Put Cursor at start position */
 189:Generated_Source\PSoC5/LCD_BarGraph.c ****         LCD_Position(row, column);
 197              		.loc 1 189 0
 198 0030 BA79     		ldrb	r2, [r7, #6]	@ zero_extendqisi2
 199 0032 FB79     		ldrb	r3, [r7, #7]	@ zero_extendqisi2
 200 0034 1146     		mov	r1, r2
 201 0036 1846     		mov	r0, r3
 202 0038 FFF7FEFF 		bl	LCD_Position
 190:Generated_Source\PSoC5/LCD_BarGraph.c **** 
 191:Generated_Source\PSoC5/LCD_BarGraph.c ****         /* Make sure the bar graph fits inside the space allotted */
 192:Generated_Source\PSoC5/LCD_BarGraph.c ****         if(fullChars >= maxCharacters)
 203              		.loc 1 192 0
 204 003c 7A7B     		ldrb	r2, [r7, #13]	@ zero_extendqisi2
 205 003e 7B79     		ldrb	r3, [r7, #5]	@ zero_extendqisi2
ARM GAS  C:\Users\diego\AppData\Local\Temp\ccFAUQV6.s 			page 8


 206 0040 9A42     		cmp	r2, r3
 207 0042 19D3     		bcc	.L6
 193:Generated_Source\PSoC5/LCD_BarGraph.c ****         {
 194:Generated_Source\PSoC5/LCD_BarGraph.c ****             fullChars = maxCharacters;
 208              		.loc 1 194 0
 209 0044 7B79     		ldrb	r3, [r7, #5]
 210 0046 7B73     		strb	r3, [r7, #13]
 195:Generated_Source\PSoC5/LCD_BarGraph.c ****         }
 196:Generated_Source\PSoC5/LCD_BarGraph.c **** 
 197:Generated_Source\PSoC5/LCD_BarGraph.c ****         /*  Write full characters */
 198:Generated_Source\PSoC5/LCD_BarGraph.c ****         while(count8 < fullChars)
 211              		.loc 1 198 0
 212 0048 16E0     		b	.L6
 213              	.L9:
 199:Generated_Source\PSoC5/LCD_BarGraph.c ****         {
 200:Generated_Source\PSoC5/LCD_BarGraph.c ****             LCD_WriteData(LCD_CUSTOM_7);
 214              		.loc 1 200 0
 215 004a 0720     		movs	r0, #7
 216 004c FFF7FEFF 		bl	LCD_WriteData
 201:Generated_Source\PSoC5/LCD_BarGraph.c **** 
 202:Generated_Source\PSoC5/LCD_BarGraph.c ****             count8++;
 217              		.loc 1 202 0
 218 0050 FB7B     		ldrb	r3, [r7, #15]	@ zero_extendqisi2
 219 0052 0133     		adds	r3, r3, #1
 220 0054 FB73     		strb	r3, [r7, #15]
 203:Generated_Source\PSoC5/LCD_BarGraph.c **** 
 204:Generated_Source\PSoC5/LCD_BarGraph.c ****             /* Each pass through, move one row higher */
 205:Generated_Source\PSoC5/LCD_BarGraph.c ****             if((((int8) row) - ((int8) count8)) >= 0)
 221              		.loc 1 205 0
 222 0056 97F90730 		ldrsb	r3, [r7, #7]
 223 005a 1A46     		mov	r2, r3
 224 005c 97F90F30 		ldrsb	r3, [r7, #15]
 225 0060 D31A     		subs	r3, r2, r3
 226 0062 002B     		cmp	r3, #0
 227 0064 0DDB     		blt	.L15
 206:Generated_Source\PSoC5/LCD_BarGraph.c ****             {
 207:Generated_Source\PSoC5/LCD_BarGraph.c ****                 LCD_Position(row - count8, column);
 228              		.loc 1 207 0
 229 0066 FA79     		ldrb	r2, [r7, #7]
 230 0068 FB7B     		ldrb	r3, [r7, #15]
 231 006a D31A     		subs	r3, r2, r3
 232 006c DBB2     		uxtb	r3, r3
 233 006e BA79     		ldrb	r2, [r7, #6]	@ zero_extendqisi2
 234 0070 1146     		mov	r1, r2
 235 0072 1846     		mov	r0, r3
 236 0074 FFF7FEFF 		bl	LCD_Position
 237              	.L6:
 198:Generated_Source\PSoC5/LCD_BarGraph.c ****         {
 238              		.loc 1 198 0
 239 0078 FA7B     		ldrb	r2, [r7, #15]	@ zero_extendqisi2
 240 007a 7B7B     		ldrb	r3, [r7, #13]	@ zero_extendqisi2
 241 007c 9A42     		cmp	r2, r3
 242 007e E4D3     		bcc	.L9
 243 0080 00E0     		b	.L8
 244              	.L15:
 208:Generated_Source\PSoC5/LCD_BarGraph.c ****             }
 209:Generated_Source\PSoC5/LCD_BarGraph.c ****             else
ARM GAS  C:\Users\diego\AppData\Local\Temp\ccFAUQV6.s 			page 9


 210:Generated_Source\PSoC5/LCD_BarGraph.c ****             {
 211:Generated_Source\PSoC5/LCD_BarGraph.c ****                 break;
 245              		.loc 1 211 0
 246 0082 00BF     		nop
 247              	.L8:
 212:Generated_Source\PSoC5/LCD_BarGraph.c ****             }
 213:Generated_Source\PSoC5/LCD_BarGraph.c ****         }
 214:Generated_Source\PSoC5/LCD_BarGraph.c **** 
 215:Generated_Source\PSoC5/LCD_BarGraph.c ****         if(((((int8) row) - ((int8) count8)) >= 0) && (fullChars < maxCharacters))
 248              		.loc 1 215 0
 249 0084 97F90730 		ldrsb	r3, [r7, #7]
 250 0088 1A46     		mov	r2, r3
 251 008a 97F90F30 		ldrsb	r3, [r7, #15]
 252 008e D31A     		subs	r3, r2, r3
 253 0090 002B     		cmp	r3, #0
 254 0092 37DB     		blt	.L16
 255              		.loc 1 215 0 is_stmt 0 discriminator 1
 256 0094 7A7B     		ldrb	r2, [r7, #13]	@ zero_extendqisi2
 257 0096 7B79     		ldrb	r3, [r7, #5]	@ zero_extendqisi2
 258 0098 9A42     		cmp	r2, r3
 259 009a 33D2     		bcs	.L16
 216:Generated_Source\PSoC5/LCD_BarGraph.c ****         {
 217:Generated_Source\PSoC5/LCD_BarGraph.c ****             /* Write remaining pixels */
 218:Generated_Source\PSoC5/LCD_BarGraph.c ****             if(remainingPixels == 0u)
 260              		.loc 1 218 0 is_stmt 1
 261 009c 3B7B     		ldrb	r3, [r7, #12]	@ zero_extendqisi2
 262 009e 002B     		cmp	r3, #0
 263 00a0 03D1     		bne	.L11
 219:Generated_Source\PSoC5/LCD_BarGraph.c ****             {
 220:Generated_Source\PSoC5/LCD_BarGraph.c ****                 LCD_WriteData((uint8) ' ');
 264              		.loc 1 220 0
 265 00a2 2020     		movs	r0, #32
 266 00a4 FFF7FEFF 		bl	LCD_WriteData
 267 00a8 05E0     		b	.L12
 268              	.L11:
 221:Generated_Source\PSoC5/LCD_BarGraph.c ****             }
 222:Generated_Source\PSoC5/LCD_BarGraph.c ****             else
 223:Generated_Source\PSoC5/LCD_BarGraph.c ****             {
 224:Generated_Source\PSoC5/LCD_BarGraph.c ****                 LCD_WriteData(remainingPixels - 1u);
 269              		.loc 1 224 0
 270 00aa 3B7B     		ldrb	r3, [r7, #12]
 271 00ac 013B     		subs	r3, r3, #1
 272 00ae DBB2     		uxtb	r3, r3
 273 00b0 1846     		mov	r0, r3
 274 00b2 FFF7FEFF 		bl	LCD_WriteData
 275              	.L12:
 225:Generated_Source\PSoC5/LCD_BarGraph.c ****             }
 226:Generated_Source\PSoC5/LCD_BarGraph.c **** 
 227:Generated_Source\PSoC5/LCD_BarGraph.c ****             currentRow = ((int8) row) - ((int8) count8) - 1;
 276              		.loc 1 227 0
 277 00b6 FA79     		ldrb	r2, [r7, #7]
 278 00b8 FB7B     		ldrb	r3, [r7, #15]
 279 00ba D31A     		subs	r3, r2, r3
 280 00bc DBB2     		uxtb	r3, r3
 281 00be 013B     		subs	r3, r3, #1
 282 00c0 DBB2     		uxtb	r3, r3
 283 00c2 BB73     		strb	r3, [r7, #14]
ARM GAS  C:\Users\diego\AppData\Local\Temp\ccFAUQV6.s 			page 10


 228:Generated_Source\PSoC5/LCD_BarGraph.c **** 
 229:Generated_Source\PSoC5/LCD_BarGraph.c ****             if(currentRow >= 0)
 284              		.loc 1 229 0
 285 00c4 97F90E30 		ldrsb	r3, [r7, #14]
 286 00c8 002B     		cmp	r3, #0
 287 00ca 1BDB     		blt	.L16
 230:Generated_Source\PSoC5/LCD_BarGraph.c ****             {
 231:Generated_Source\PSoC5/LCD_BarGraph.c ****                 /* Move up one row and fill with whitespace till top of bar graph */
 232:Generated_Source\PSoC5/LCD_BarGraph.c ****                 for(count8 = 0u; count8 < (maxCharacters - fullChars - 1u); count8++)
 288              		.loc 1 232 0
 289 00cc 0023     		movs	r3, #0
 290 00ce FB73     		strb	r3, [r7, #15]
 291 00d0 11E0     		b	.L13
 292              	.L14:
 233:Generated_Source\PSoC5/LCD_BarGraph.c ****                 {
 234:Generated_Source\PSoC5/LCD_BarGraph.c ****                     LCD_Position((uint8)currentRow, column);
 293              		.loc 1 234 0 discriminator 3
 294 00d2 BB7B     		ldrb	r3, [r7, #14]	@ zero_extendqisi2
 295 00d4 BA79     		ldrb	r2, [r7, #6]	@ zero_extendqisi2
 296 00d6 1146     		mov	r1, r2
 297 00d8 1846     		mov	r0, r3
 298 00da FFF7FEFF 		bl	LCD_Position
 235:Generated_Source\PSoC5/LCD_BarGraph.c ****                     LCD_WriteData((uint8) ' ');
 299              		.loc 1 235 0 discriminator 3
 300 00de 2020     		movs	r0, #32
 301 00e0 FFF7FEFF 		bl	LCD_WriteData
 236:Generated_Source\PSoC5/LCD_BarGraph.c ****                     currentRow --;
 302              		.loc 1 236 0 discriminator 3
 303 00e4 97F90E30 		ldrsb	r3, [r7, #14]
 304 00e8 DBB2     		uxtb	r3, r3
 305 00ea 013B     		subs	r3, r3, #1
 306 00ec DBB2     		uxtb	r3, r3
 307 00ee BB73     		strb	r3, [r7, #14]
 232:Generated_Source\PSoC5/LCD_BarGraph.c ****                 {
 308              		.loc 1 232 0 discriminator 3
 309 00f0 FB7B     		ldrb	r3, [r7, #15]	@ zero_extendqisi2
 310 00f2 0133     		adds	r3, r3, #1
 311 00f4 FB73     		strb	r3, [r7, #15]
 312              	.L13:
 232:Generated_Source\PSoC5/LCD_BarGraph.c ****                 {
 313              		.loc 1 232 0 is_stmt 0 discriminator 1
 314 00f6 FA7B     		ldrb	r2, [r7, #15]	@ zero_extendqisi2
 315 00f8 7979     		ldrb	r1, [r7, #5]	@ zero_extendqisi2
 316 00fa 7B7B     		ldrb	r3, [r7, #13]	@ zero_extendqisi2
 317 00fc CB1A     		subs	r3, r1, r3
 318 00fe 013B     		subs	r3, r3, #1
 319 0100 9A42     		cmp	r2, r3
 320 0102 E6D3     		bcc	.L14
 321              	.L16:
 237:Generated_Source\PSoC5/LCD_BarGraph.c ****                 }
 238:Generated_Source\PSoC5/LCD_BarGraph.c ****             }
 239:Generated_Source\PSoC5/LCD_BarGraph.c ****         }
 240:Generated_Source\PSoC5/LCD_BarGraph.c ****     }
 322              		.loc 1 240 0 is_stmt 1
 323 0104 00BF     		nop
 324 0106 1437     		adds	r7, r7, #20
 325              		.cfi_def_cfa_offset 12
ARM GAS  C:\Users\diego\AppData\Local\Temp\ccFAUQV6.s 			page 11


 326 0108 BD46     		mov	sp, r7
 327              		.cfi_def_cfa_register 13
 328              		@ sp needed
 329 010a 90BD     		pop	{r4, r7, pc}
 330              		.cfi_endproc
 331              	.LFE1:
 332              		.size	LCD_DrawVerticalBG, .-LCD_DrawVerticalBG
 333              		.text
 334              	.Letext0:
 335              		.file 2 "Generated_Source\\PSoC5\\cytypes.h"