ARM GAS  C:\Users\diego\AppData\Local\Temp\cccb3iIX.s 			page 1


   1              		.syntax unified
   2              		.cpu cortex-m3
   3              		.fpu softvfp
   4              		.eabi_attribute 20, 1
   5              		.eabi_attribute 21, 1
   6              		.eabi_attribute 23, 3
   7              		.eabi_attribute 24, 1
   8              		.eabi_attribute 25, 1
   9              		.eabi_attribute 26, 1
  10              		.eabi_attribute 30, 6
  11              		.eabi_attribute 34, 1
  12              		.eabi_attribute 18, 4
  13              		.thumb
  14              		.syntax unified
  15              		.file	"main.c"
  16              		.text
  17              	.Ltext0:
  18              		.cfi_sections	.debug_frame
  19              		.section	.rodata
  20              		.align	2
  21              	.LC1:
  22 0000 436F756E 		.ascii	"CountNumber\000"
  22      744E756D 
  22      62657200 
  23              		.align	2
  24              	.LC2:
  25 000c 20202020 		.ascii	"                \000"
  25      20202020 
  25      20202020 
  25      20202020 
  25      00
  26 001d 000000   		.align	2
  27              	.LC0:
  28 0020 30       		.byte	48
  29 0021 30       		.byte	48
  30 0022 30       		.byte	48
  31 0023 30       		.byte	48
  32 0024 00       		.byte	0
  33              		.section	.text.main,"ax",%progbits
  34              		.align	2
  35              		.global	main
  36              		.thumb
  37              		.thumb_func
  38              		.type	main, %function
  39              	main:
  40              	.LFB63:
  41              		.file 1 "main.c"
   1:main.c        **** /*******************************************************************************
   2:main.c        **** * File Name: main.c
   3:main.c        **** *
   4:main.c        **** * Version: 2.10
   5:main.c        **** *
   6:main.c        **** * Description:
   7:main.c        **** *  This is source code for the datasheet example of the Quadrature Decoder 
   8:main.c        **** *  Component.
   9:main.c        **** *
  10:main.c        **** *  Quadrature Decoder Component is driven by two PWM's. Each 500 counts which 
ARM GAS  C:\Users\diego\AppData\Local\Temp\cccb3iIX.s 			page 2


  11:main.c        **** *  are totaled by the Quadrature Decoder Component on Character LCD add one 
  12:main.c        **** *  line of the Vertical Bargraph. When 4000 counts are counted - the Control 
  13:main.c        **** *  Register generates the index signal and Quadrature Decoder is Reset. Number
  14:main.c        **** *  of counts resets to zero, and the procedure cyclically repeats.
  15:main.c        **** *
  16:main.c        **** ********************************************************************************
  17:main.c        **** * Copyright 2012, Cypress Semiconductor Corporation. All rights reserved.
  18:main.c        **** * This software is owned by Cypress Semiconductor Corporation and is protected
  19:main.c        **** * by and subject to worldwide patent and copyright laws and treaties.
  20:main.c        **** * Therefore, you may use this software only as provided in the license agreement
  21:main.c        **** * accompanying the software package from which you obtained this software.
  22:main.c        **** * CYPRESS AND ITS SUPPLIERS MAKE NO WARRANTY OF ANY KIND, EXPRESS OR IMPLIED,
  23:main.c        **** * WITH REGARD TO THIS SOFTWARE, INCLUDING, BUT NOT LIMITED TO, NONINFRINGEMENT,
  24:main.c        **** * IMPLIED WARRANTIES OF MERCHANTABILITY AND FITNESS FOR A PARTICULAR PURPOSE.
  25:main.c        **** *******************************************************************************/
  26:main.c        **** 
  27:main.c        **** #include <project.h>
  28:main.c        **** 
  29:main.c        **** extern uint8 const CYCODE LCD_customFonts[];
  30:main.c        **** 
  31:main.c        **** 
  32:main.c        **** /*******************************************************************************
  33:main.c        **** * Function Name: main
  34:main.c        **** ********************************************************************************
  35:main.c        **** *
  36:main.c        **** * Summary:
  37:main.c        **** *  main function performs following functions:
  38:main.c        **** *   1. Enables global interrupts.
  39:main.c        **** *   2. Start LCD component.
  40:main.c        **** *   3. Start PWM components.
  41:main.c        **** *   4. Start QD component.
  42:main.c        **** *   5. Display on LCD lines of the Vertical Bargraph every 500 counts of QD 
  43:main.c        **** *      component.
  44:main.c        **** *
  45:main.c        **** * Parameters:
  46:main.c        **** *  None.
  47:main.c        **** *
  48:main.c        **** * Return:
  49:main.c        **** *  None.
  50:main.c        **** *
  51:main.c        **** *******************************************************************************/
  52:main.c        **** int main()
  53:main.c        **** {
  42              		.loc 1 53 0
  43              		.cfi_startproc
  44              		@ args = 0, pretend = 0, frame = 16
  45              		@ frame_needed = 1, uses_anonymous_args = 0
  46 0000 80B5     		push	{r7, lr}
  47              		.cfi_def_cfa_offset 8
  48              		.cfi_offset 7, -8
  49              		.cfi_offset 14, -4
  50 0002 84B0     		sub	sp, sp, #16
  51              		.cfi_def_cfa_offset 24
  52 0004 00AF     		add	r7, sp, #0
  53              		.cfi_def_cfa_register 7
  54:main.c        ****     uint16 qdCount = 0u;
  54              		.loc 1 54 0
ARM GAS  C:\Users\diego\AppData\Local\Temp\cccb3iIX.s 			page 3


  55 0006 0023     		movs	r3, #0
  56 0008 FB81     		strh	r3, [r7, #14]	@ movhi
  55:main.c        ****     uint8 i = 1u;
  57              		.loc 1 55 0
  58 000a 0123     		movs	r3, #1
  59 000c 7B73     		strb	r3, [r7, #13]
  56:main.c        ****     uint8 j = 0u;
  60              		.loc 1 56 0
  61 000e 0023     		movs	r3, #0
  62 0010 3B73     		strb	r3, [r7, #12]
  57:main.c        ****     uint8 k;
  58:main.c        ****     char8 number[5u] = {0x30u, 0x30u, 0x30u, 0x30u, '\0'};
  63              		.loc 1 58 0
  64 0012 524A     		ldr	r2, .L7
  65 0014 3B1D     		adds	r3, r7, #4
  66 0016 1068     		ldr	r0, [r2]	@ unaligned
  67 0018 1860     		str	r0, [r3]	@ unaligned
  68 001a 1279     		ldrb	r2, [r2, #4]
  69 001c 1A71     		strb	r2, [r3, #4]
  59:main.c        **** 
  60:main.c        ****     CyGlobalIntEnable;  /* enable global interrupts. */
  70              		.loc 1 60 0
  71              		.syntax unified
  72              	@ 60 "main.c" 1
  73 001e 62B6     		CPSIE   i
  74              	@ 0 "" 2
  61:main.c        ****     
  62:main.c        ****     Control_Reg_Index_Write(1u);
  75              		.loc 1 62 0
  76              		.thumb
  77              		.syntax unified
  78 0020 0120     		movs	r0, #1
  79 0022 FFF7FEFF 		bl	Control_Reg_Index_Write
  63:main.c        ****     
  64:main.c        ****     LCD_Start();    
  80              		.loc 1 64 0
  81 0026 FFF7FEFF 		bl	LCD_Start
  65:main.c        ****     LCD_LoadCustomFonts(LCD_customFonts);              
  82              		.loc 1 65 0
  83 002a 4D48     		ldr	r0, .L7+4
  84 002c FFF7FEFF 		bl	LCD_LoadCustomFonts
  66:main.c        ****     
  67:main.c        ****     LCD_Position(0u, 0u);
  85              		.loc 1 67 0
  86 0030 0021     		movs	r1, #0
  87 0032 0020     		movs	r0, #0
  88 0034 FFF7FEFF 		bl	LCD_Position
  68:main.c        ****     LCD_PrintString("CountNumber");
  89              		.loc 1 68 0
  90 0038 4A48     		ldr	r0, .L7+8
  91 003a FFF7FEFF 		bl	LCD_PrintString
  69:main.c        ****     
  70:main.c        ****     PWM_1_Start();
  92              		.loc 1 70 0
  93 003e FFF7FEFF 		bl	PWM_1_Start
  71:main.c        ****     PWM_2_Start(); 
  94              		.loc 1 71 0
ARM GAS  C:\Users\diego\AppData\Local\Temp\cccb3iIX.s 			page 4


  95 0042 FFF7FEFF 		bl	PWM_2_Start
  72:main.c        ****     QD_SetCounter(5u);
  96              		.loc 1 72 0
  97 0046 0520     		movs	r0, #5
  98 0048 FFF7FEFF 		bl	QD_SetCounter
  73:main.c        ****     QD_Start();
  99              		.loc 1 73 0
 100 004c FFF7FEFF 		bl	QD_Start
  74:main.c        ****     
  75:main.c        ****     LCD_Position(0u, 12u);
 101              		.loc 1 75 0
 102 0050 0C21     		movs	r1, #12
 103 0052 0020     		movs	r0, #0
 104 0054 FFF7FEFF 		bl	LCD_Position
  76:main.c        ****     LCD_PrintString(number);
 105              		.loc 1 76 0
 106 0058 3B1D     		adds	r3, r7, #4
 107 005a 1846     		mov	r0, r3
 108 005c FFF7FEFF 		bl	LCD_PrintString
 109              	.L6:
  77:main.c        ****     
  78:main.c        ****     for(;;)
  79:main.c        ****     {
  80:main.c        ****         qdCount = QD_GetCounter();  /* Get value of counts */
 110              		.loc 1 80 0
 111 0060 FFF7FEFF 		bl	QD_GetCounter
 112 0064 0346     		mov	r3, r0
 113 0066 FB81     		strh	r3, [r7, #14]	@ movhi
  81:main.c        ****         
  82:main.c        ****         /* Check when number of counts multiple of 500 */
  83:main.c        ****         if( ((qdCount % 500u) == 0u) && (qdCount > 0u) )
 114              		.loc 1 83 0
 115 0068 FB89     		ldrh	r3, [r7, #14]
 116 006a 3F4A     		ldr	r2, .L7+12
 117 006c A2FB0312 		umull	r1, r2, r2, r3
 118 0070 5209     		lsrs	r2, r2, #5
 119 0072 4FF4FA71 		mov	r1, #500
 120 0076 01FB02F2 		mul	r2, r1, r2
 121 007a 9B1A     		subs	r3, r3, r2
 122 007c 9BB2     		uxth	r3, r3
 123 007e 002B     		cmp	r3, #0
 124 0080 50D1     		bne	.L2
 125              		.loc 1 83 0 is_stmt 0 discriminator 1
 126 0082 FB89     		ldrh	r3, [r7, #14]
 127 0084 002B     		cmp	r3, #0
 128 0086 4DD0     		beq	.L2
  84:main.c        ****         {
  85:main.c        ****             /* Procedure of number conversion to decimal system */
  86:main.c        ****             k = 3u;
 129              		.loc 1 86 0 is_stmt 1
 130 0088 0323     		movs	r3, #3
 131 008a FB72     		strb	r3, [r7, #11]
  87:main.c        ****             number[0u] = '0';
 132              		.loc 1 87 0
 133 008c 3023     		movs	r3, #48
 134 008e 3B71     		strb	r3, [r7, #4]
  88:main.c        ****             while (qdCount >= 10u)
ARM GAS  C:\Users\diego\AppData\Local\Temp\cccb3iIX.s 			page 5


 135              		.loc 1 88 0
 136 0090 1CE0     		b	.L3
 137              	.L4:
  89:main.c        ****             {
  90:main.c        ****                 number[k--] = (qdCount % 10u) + 0x30u;
 138              		.loc 1 90 0
 139 0092 FB7A     		ldrb	r3, [r7, #11]	@ zero_extendqisi2
 140 0094 5A1E     		subs	r2, r3, #1
 141 0096 FA72     		strb	r2, [r7, #11]
 142 0098 1846     		mov	r0, r3
 143 009a FA89     		ldrh	r2, [r7, #14]
 144 009c 334B     		ldr	r3, .L7+16
 145 009e A3FB0213 		umull	r1, r3, r3, r2
 146 00a2 D908     		lsrs	r1, r3, #3
 147 00a4 0B46     		mov	r3, r1
 148 00a6 9B00     		lsls	r3, r3, #2
 149 00a8 0B44     		add	r3, r3, r1
 150 00aa 5B00     		lsls	r3, r3, #1
 151 00ac D31A     		subs	r3, r2, r3
 152 00ae 9BB2     		uxth	r3, r3
 153 00b0 DBB2     		uxtb	r3, r3
 154 00b2 3033     		adds	r3, r3, #48
 155 00b4 DAB2     		uxtb	r2, r3
 156 00b6 07F11003 		add	r3, r7, #16
 157 00ba 0344     		add	r3, r3, r0
 158 00bc 03F80C2C 		strb	r2, [r3, #-12]
  91:main.c        ****                 qdCount /= 10u;
 159              		.loc 1 91 0
 160 00c0 FB89     		ldrh	r3, [r7, #14]
 161 00c2 2A4A     		ldr	r2, .L7+16
 162 00c4 A2FB0323 		umull	r2, r3, r2, r3
 163 00c8 DB08     		lsrs	r3, r3, #3
 164 00ca FB81     		strh	r3, [r7, #14]	@ movhi
 165              	.L3:
  88:main.c        ****             while (qdCount >= 10u)
 166              		.loc 1 88 0
 167 00cc FB89     		ldrh	r3, [r7, #14]
 168 00ce 092B     		cmp	r3, #9
 169 00d0 DFD8     		bhi	.L4
  92:main.c        ****             }
  93:main.c        ****             
  94:main.c        ****             number[k] = (qdCount % 10u) + 0x30u;
 170              		.loc 1 94 0
 171 00d2 F87A     		ldrb	r0, [r7, #11]	@ zero_extendqisi2
 172 00d4 FA89     		ldrh	r2, [r7, #14]
 173 00d6 254B     		ldr	r3, .L7+16
 174 00d8 A3FB0213 		umull	r1, r3, r3, r2
 175 00dc D908     		lsrs	r1, r3, #3
 176 00de 0B46     		mov	r3, r1
 177 00e0 9B00     		lsls	r3, r3, #2
 178 00e2 0B44     		add	r3, r3, r1
 179 00e4 5B00     		lsls	r3, r3, #1
 180 00e6 D31A     		subs	r3, r2, r3
 181 00e8 9BB2     		uxth	r3, r3
 182 00ea DBB2     		uxtb	r3, r3
 183 00ec 3033     		adds	r3, r3, #48
 184 00ee DAB2     		uxtb	r2, r3
ARM GAS  C:\Users\diego\AppData\Local\Temp\cccb3iIX.s 			page 6


 185 00f0 07F11003 		add	r3, r7, #16
 186 00f4 0344     		add	r3, r3, r0
 187 00f6 03F80C2C 		strb	r2, [r3, #-12]
  95:main.c        **** 
  96:main.c        ****             /* Display on LCD number of counts */
  97:main.c        ****             LCD_Position(0u, 12u);
 188              		.loc 1 97 0
 189 00fa 0C21     		movs	r1, #12
 190 00fc 0020     		movs	r0, #0
 191 00fe FFF7FEFF 		bl	LCD_Position
  98:main.c        ****             LCD_PrintString(number);
 192              		.loc 1 98 0
 193 0102 3B1D     		adds	r3, r7, #4
 194 0104 1846     		mov	r0, r3
 195 0106 FFF7FEFF 		bl	LCD_PrintString
  99:main.c        ****             
 100:main.c        ****             /* Display on LCD next Vertical Bargraph line */
 101:main.c        ****             LCD_DrawVerticalBG(1u, j++, 1u, i++);
 196              		.loc 1 101 0
 197 010a 397B     		ldrb	r1, [r7, #12]	@ zero_extendqisi2
 198 010c 4B1C     		adds	r3, r1, #1
 199 010e 3B73     		strb	r3, [r7, #12]
 200 0110 7B7B     		ldrb	r3, [r7, #13]	@ zero_extendqisi2
 201 0112 5A1C     		adds	r2, r3, #1
 202 0114 7A73     		strb	r2, [r7, #13]
 203 0116 0122     		movs	r2, #1
 204 0118 0120     		movs	r0, #1
 205 011a FFF7FEFF 		bl	LCD_DrawVerticalBG
 102:main.c        ****             CyDelay(50u);
 206              		.loc 1 102 0
 207 011e 3220     		movs	r0, #50
 208 0120 FFF7FEFF 		bl	CyDelay
 209              	.L2:
 103:main.c        ****         }
 104:main.c        **** 
 105:main.c        ****         if(j > 7u)
 210              		.loc 1 105 0
 211 0124 3B7B     		ldrb	r3, [r7, #12]	@ zero_extendqisi2
 212 0126 072B     		cmp	r3, #7
 213 0128 9AD9     		bls	.L6
 106:main.c        ****         {
 107:main.c        ****             CyDelay(150u);
 214              		.loc 1 107 0
 215 012a 9620     		movs	r0, #150
 216 012c FFF7FEFF 		bl	CyDelay
 108:main.c        ****             j = 0u;
 217              		.loc 1 108 0
 218 0130 0023     		movs	r3, #0
 219 0132 3B73     		strb	r3, [r7, #12]
 109:main.c        ****             i = 1u;
 220              		.loc 1 109 0
 221 0134 0123     		movs	r3, #1
 222 0136 7B73     		strb	r3, [r7, #13]
 110:main.c        ****             
 111:main.c        ****             /* Set index input for QD reset generation */
 112:main.c        ****             Control_Reg_Index_Write(0u);
 223              		.loc 1 112 0
ARM GAS  C:\Users\diego\AppData\Local\Temp\cccb3iIX.s 			page 7


 224 0138 0020     		movs	r0, #0
 225 013a FFF7FEFF 		bl	Control_Reg_Index_Write
 113:main.c        ****             CyDelay(5u);
 226              		.loc 1 113 0
 227 013e 0520     		movs	r0, #5
 228 0140 FFF7FEFF 		bl	CyDelay
 114:main.c        ****             Control_Reg_Index_Write(1u);
 229              		.loc 1 114 0
 230 0144 0120     		movs	r0, #1
 231 0146 FFF7FEFF 		bl	Control_Reg_Index_Write
 115:main.c        ****             
 116:main.c        ****             /* Clear LCD */
 117:main.c        ****             LCD_Position(1u, 0u);
 232              		.loc 1 117 0
 233 014a 0021     		movs	r1, #0
 234 014c 0120     		movs	r0, #1
 235 014e FFF7FEFF 		bl	LCD_Position
 118:main.c        ****             LCD_PrintString("                ");            
 236              		.loc 1 118 0
 237 0152 0748     		ldr	r0, .L7+20
 238 0154 FFF7FEFF 		bl	LCD_PrintString
 119:main.c        ****         }                
 120:main.c        ****     }
 239              		.loc 1 120 0
 240 0158 82E7     		b	.L6
 241              	.L8:
 242 015a 00BF     		.align	2
 243              	.L7:
 244 015c 20000000 		.word	.LC0
 245 0160 00000000 		.word	LCD_customFonts
 246 0164 00000000 		.word	.LC1
 247 0168 D34D6210 		.word	274877907
 248 016c CDCCCCCC 		.word	-858993459
 249 0170 0C000000 		.word	.LC2
 250              		.cfi_endproc
 251              	.LFE63:
 252              		.size	main, .-main
 253              		.text
 254              	.Letext0:
 255              		.file 2 "c:\\program files (x86)\\cypress\\psoc creator\\4.2\\psoc creator\\import\\gnu\\arm\\5.4.
 256              		.file 3 "c:\\program files (x86)\\cypress\\psoc creator\\4.2\\psoc creator\\import\\gnu\\arm\\5.4.
 257              		.file 4 "Generated_Source\\PSoC5/cytypes.h"
 258              		.file 5 "Generated_Source\\PSoC5/core_cm3.h"