ARM GAS  C:\Users\diego\AppData\Local\Temp\ccwtFwpc.s 			page 1


   1              		.syntax unified
   2              		.cpu cortex-m0
   3              		.fpu softvfp
   4              		.eabi_attribute 20, 1
   5              		.eabi_attribute 21, 1
   6              		.eabi_attribute 23, 3
   7              		.eabi_attribute 24, 1
   8              		.eabi_attribute 25, 1
   9              		.eabi_attribute 26, 1
  10              		.eabi_attribute 30, 6
  11              		.eabi_attribute 34, 0
  12              		.eabi_attribute 18, 4
  13              		.thumb
  14              		.syntax unified
  15              		.file	"main.c"
  16              		.text
  17              	.Ltext0:
  18              		.cfi_sections	.debug_frame
  19              		.comm	curPos,2,2
  20              		.section	.text.InterruptHandler,"ax",%progbits
  21              		.align	2
  22              		.global	InterruptHandler
  23              		.code	16
  24              		.thumb_func
  25              		.type	InterruptHandler, %function
  26              	InterruptHandler:
  27              	.LFB32:
  28              		.file 1 "main.c"
   1:main.c        **** /*******************************************************************************
   2:main.c        **** * File Name: main.c
   3:main.c        **** *
   4:main.c        **** * Version: 2.10
   5:main.c        **** *
   6:main.c        **** * Description:
   7:main.c        **** *  This is source code for the datasheet example of the TCPWM (PWM 
   8:main.c        **** *  mode) component.
   9:main.c        **** *
  10:main.c        **** ********************************************************************************
  11:main.c        **** * Copyright 2013-2017, Cypress Semiconductor Corporation. All rights reserved.
  12:main.c        **** * This software is owned by Cypress Semiconductor Corporation and is protected
  13:main.c        **** * by and subject to worldwide patent and copyright laws and treaties.
  14:main.c        **** * Therefore, you may use this software only as provided in the license agreement
  15:main.c        **** * accompanying the software package from which you obtained this software.
  16:main.c        **** * CYPRESS AND ITS SUPPLIERS MAKE NO WARRANTY OF ANY KIND, EXPRESS OR IMPLIED,
  17:main.c        **** * WITH REGARD TO THIS SOFTWARE, INCLUDING, BUT NOT LIMITED TO, NONINFRINGEMENT,
  18:main.c        **** * IMPLIED WARRANTIES OF MERCHANTABILITY AND FITNESS FOR A PARTICULAR PURPOSE.
  19:main.c        **** *******************************************************************************/
  20:main.c        **** 
  21:main.c        **** #include <project.h>
  22:main.c        **** 
  23:main.c        **** #define BRIGHTNESS_DECREASE         (100u)
  24:main.c        **** 
  25:main.c        **** uint16 curPos;
  26:main.c        **** 
  27:main.c        **** 
  28:main.c        **** /*******************************************************************************
  29:main.c        **** * Define Interrupt service routine and allocate an vector to the Interrupt
ARM GAS  C:\Users\diego\AppData\Local\Temp\ccwtFwpc.s 			page 2


  30:main.c        **** ********************************************************************************/
  31:main.c        **** CY_ISR(InterruptHandler)
  32:main.c        **** {
  29              		.loc 1 32 0
  30              		.cfi_startproc
  31              		@ args = 0, pretend = 0, frame = 0
  32              		@ frame_needed = 1, uses_anonymous_args = 0
  33 0000 80B5     		push	{r7, lr}
  34              		.cfi_def_cfa_offset 8
  35              		.cfi_offset 7, -8
  36              		.cfi_offset 14, -4
  37 0002 00AF     		add	r7, sp, #0
  38              		.cfi_def_cfa_register 7
  33:main.c        **** 	/* Clear TC Inerrupt */
  34:main.c        ****    	PWM_ClearInterrupt(PWM_INTR_MASK_TC);
  39              		.loc 1 34 0
  40 0004 0120     		movs	r0, #1
  41 0006 FFF7FEFF 		bl	PWM_ClearInterrupt
  35:main.c        ****     
  36:main.c        **** 	/* Increment the Compare for LED brighrness decrease */ 
  37:main.c        ****     PWM_WriteCompare(PWM_ReadCompare() + BRIGHTNESS_DECREASE);
  42              		.loc 1 37 0
  43 000a FFF7FEFF 		bl	PWM_ReadCompare
  44 000e 0300     		movs	r3, r0
  45 0010 6433     		adds	r3, r3, #100
  46 0012 1800     		movs	r0, r3
  47 0014 FFF7FEFF 		bl	PWM_WriteCompare
  38:main.c        **** }
  48              		.loc 1 38 0
  49 0018 C046     		nop
  50 001a BD46     		mov	sp, r7
  51              		@ sp needed
  52 001c 80BD     		pop	{r7, pc}
  53              		.cfi_endproc
  54              	.LFE32:
  55              		.size	InterruptHandler, .-InterruptHandler
  56 001e C046     		.section	.text.main,"ax",%progbits
  57              		.align	2
  58              		.global	main
  59              		.code	16
  60              		.thumb_func
  61              		.type	main, %function
  62              	main:
  63              	.LFB33:
  39:main.c        **** 
  40:main.c        **** int main()
  41:main.c        **** {   
  64              		.loc 1 41 0
  65              		.cfi_startproc
  66              		@ args = 0, pretend = 0, frame = 0
  67              		@ frame_needed = 1, uses_anonymous_args = 0
  68 0000 80B5     		push	{r7, lr}
  69              		.cfi_def_cfa_offset 8
  70              		.cfi_offset 7, -8
  71              		.cfi_offset 14, -4
  72 0002 00AF     		add	r7, sp, #0
  73              		.cfi_def_cfa_register 7
ARM GAS  C:\Users\diego\AppData\Local\Temp\ccwtFwpc.s 			page 3


  42:main.c        ****     #if (CY_PSOC4_4000)
  43:main.c        ****         CySysWdtDisable();
  44:main.c        ****     #endif /* (CY_PSOC4_4000) */
  45:main.c        ****     
  46:main.c        ****     CyDelay(50u);
  74              		.loc 1 46 0
  75 0004 3220     		movs	r0, #50
  76 0006 FFF7FEFF 		bl	CyDelay
  47:main.c        ****     
  48:main.c        ****     /* Enable the global interrupt */
  49:main.c        ****     CyGlobalIntEnable;
  77              		.loc 1 49 0
  78              		.syntax divided
  79              	@ 49 "main.c" 1
  80 000a 62B6     		CPSIE   i
  81              	@ 0 "" 2
  50:main.c        ****  
  51:main.c        ****     /* Enable the Interrupt component connected to interrupt */
  52:main.c        ****     TC_ISR_StartEx(InterruptHandler);
  82              		.loc 1 52 0
  83              		.thumb
  84              		.syntax unified
  85 000c 054B     		ldr	r3, .L4
  86 000e 1800     		movs	r0, r3
  87 0010 FFF7FEFF 		bl	TC_ISR_StartEx
  53:main.c        ****     
  54:main.c        **** 	/* Start the components */
  55:main.c        ****     PWM_Start();
  88              		.loc 1 55 0
  89 0014 FFF7FEFF 		bl	PWM_Start
  56:main.c        ****     PWM_WritePeriod(65300u);
  90              		.loc 1 56 0
  91 0018 034B     		ldr	r3, .L4+4
  92 001a 1800     		movs	r0, r3
  93 001c FFF7FEFF 		bl	PWM_WritePeriod
  94              	.L3:
  57:main.c        ****     
  58:main.c        ****     for(;;)
  59:main.c        ****     {
  60:main.c        ****         
  61:main.c        ****     }
  95              		.loc 1 61 0 discriminator 1
  96 0020 FEE7     		b	.L3
  97              	.L5:
  98 0022 C046     		.align	2
  99              	.L4:
 100 0024 00000000 		.word	InterruptHandler
 101 0028 14FF0000 		.word	65300
 102              		.cfi_endproc
 103              	.LFE33:
 104              		.size	main, .-main
 105              		.text
 106              	.Letext0:
 107              		.file 2 "Generated_Source\\PSoC4/cytypes.h"