ARM GAS  C:\Users\diego\AppData\Local\Temp\ccem3O8i.s 			page 1


   1              		.syntax unified
   2              		.cpu cortex-m3
   3              		.fpu softvfp
   4              		.eabi_attribute 20, 1
   5              		.eabi_attribute 21, 1
   6              		.eabi_attribute 23, 3
   7              		.eabi_attribute 24, 1
   8              		.eabi_attribute 25, 1
   9              		.eabi_attribute 26, 1
  10              		.eabi_attribute 30, 1
  11              		.eabi_attribute 34, 1
  12              		.eabi_attribute 18, 4
  13              		.thumb
  14              		.syntax unified
  15              		.file	"main.c"
  16              		.text
  17              	.Ltext0:
  18              		.cfi_sections	.debug_frame
  19              		.global	__aeabi_fmul
  20              		.global	__aeabi_f2iz
  21              		.section	.text.transmit,"ax",%progbits
  22              		.align	2
  23              		.global	transmit
  24              		.thumb
  25              		.thumb_func
  26              		.type	transmit, %function
  27              	transmit:
  28              	.LFB64:
  29              		.file 1 "main.c"
   1:main.c        **** #include <project.h>
   2:main.c        **** #include <string.h>
   3:main.c        **** #include <stdio.h>
   4:main.c        **** #include <math.h>
   5:main.c        **** 
   6:main.c        **** 
   7:main.c        **** /* Global constants */
   8:main.c        ****  #define PWM_MAX         999   // PWM 100% (499) with Tpwm = 500us @ 1MHz (500 counts)
   9:main.c        ****  #define V_MAX           12
  10:main.c        ****  #define N_MAX           PWM_MAX+1
  11:main.c        ****  #define PWM_FACTOR      N_MAX/V_MAX   // 100 counts/volt with Tpwm = 500us @ 1MHz
  12:main.c        ****  #define MaxAnguloMotor  3.14
  13:main.c        ****  #define MaxAnguloPendulo  1.5
  14:main.c        **** 
  15:main.c        ****  #define REFERENCE      0    // 
  16:main.c        ****  #define MAXINTEGRAL    11  // Limits the integral part to 12V -> 11V
  17:main.c        ****  #define TS_FACTOR      1    // 5ms counts for Ts = 5ms
  18:main.c        ****  #define TS             0.005 // 1ms
  19:main.c        ****  #define FS             1/TS  // TS = 1mss  
  20:main.c        **** 
  21:main.c        **** // Constantes de control
  22:main.c        ****  #define KP 45
  23:main.c        ****  #define KI 220
  24:main.c        ****  #define KD 0.35
  25:main.c        ****  #define N 10
  26:main.c        **** 
  27:main.c        **** // Constantes de control en discreto
  28:main.c        ****  #define IT KI*TS
ARM GAS  C:\Users\diego\AppData\Local\Temp\ccem3O8i.s 			page 2


  29:main.c        ****  #define DN KD*N
  30:main.c        ****  #define DF KD*FS
  31:main.c        ****  #define UNONTS 1+N*TS
  32:main.c        **** 
  33:main.c        **** 
  34:main.c        **** // Inicio de control
  35:main.c        **** int Inicio = 0;
  36:main.c        **** 
  37:main.c        **** // Encoder del pendulo
  38:main.c        **** int cnt1 = 0;
  39:main.c        **** float angulo1 = 0;
  40:main.c        **** 
  41:main.c        **** // ADC - deprecated
  42:main.c        **** float adcMeas  = 0;
  43:main.c        **** float Tension = 0;
  44:main.c        **** 
  45:main.c        **** // Variables PID
  46:main.c        **** volatile float ikLast = 0; // Integral action and memory
  47:main.c        **** volatile float dkLast = 0; // derivative action and memory
  48:main.c        **** volatile float ekLast = 0; // last error
  49:main.c        **** float mk = 0;   // total control action
  50:main.c        **** int16 pwm = 0;
  51:main.c        **** 
  52:main.c        **** void transmit(float input, int tab)
  53:main.c        **** {
  30              		.loc 1 53 0
  31              		.cfi_startproc
  32              		@ args = 0, pretend = 0, frame = 56
  33              		@ frame_needed = 0, uses_anonymous_args = 0
  34              	.LVL0:
  35 0000 10B5     		push	{r4, lr}
  36              		.cfi_def_cfa_offset 8
  37              		.cfi_offset 4, -8
  38              		.cfi_offset 14, -4
  39 0002 8EB0     		sub	sp, sp, #56
  40              		.cfi_def_cfa_offset 64
  41 0004 0C46     		mov	r4, r1
  54:main.c        ****     char StringBuff[50];
  55:main.c        ****     input = input*1000;
  42              		.loc 1 55 0
  43 0006 0B49     		ldr	r1, .L5
  44              	.LVL1:
  45 0008 FFF7FEFF 		bl	__aeabi_fmul
  46              	.LVL2:
  56:main.c        ****     int sender = input;
  47              		.loc 1 56 0
  48 000c FFF7FEFF 		bl	__aeabi_f2iz
  49              	.LVL3:
  57:main.c        ****     // Verify if we have to put a tab or endl
  58:main.c        ****     if(tab == 1)
  50              		.loc 1 58 0
  51 0010 012C     		cmp	r4, #1
  52 0012 05D1     		bne	.L2
  59:main.c        ****         sprintf(StringBuff, "%d\t", sender);
  53              		.loc 1 59 0
  54 0014 0246     		mov	r2, r0
  55 0016 0849     		ldr	r1, .L5+4
ARM GAS  C:\Users\diego\AppData\Local\Temp\ccem3O8i.s 			page 3


  56 0018 01A8     		add	r0, sp, #4
  57              	.LVL4:
  58 001a FFF7FEFF 		bl	sprintf
  59              	.LVL5:
  60 001e 04E0     		b	.L3
  61              	.LVL6:
  62              	.L2:
  60:main.c        ****     // If it is a endl
  61:main.c        ****     else
  62:main.c        ****     {
  63:main.c        ****         sprintf(StringBuff, "%d\n", sender);
  63              		.loc 1 63 0
  64 0020 0246     		mov	r2, r0
  65 0022 0649     		ldr	r1, .L5+8
  66 0024 01A8     		add	r0, sp, #4
  67              	.LVL7:
  68 0026 FFF7FEFF 		bl	sprintf
  69              	.LVL8:
  70              	.L3:
  64:main.c        ****         
  65:main.c        ****     }
  66:main.c        ****     // Transmit string
  67:main.c        ****         UART_1_PutString(StringBuff);
  71              		.loc 1 67 0
  72 002a 01A8     		add	r0, sp, #4
  73 002c FFF7FEFF 		bl	UART_1_PutString
  74              	.LVL9:
  68:main.c        **** }
  75              		.loc 1 68 0
  76 0030 0EB0     		add	sp, sp, #56
  77              		.cfi_def_cfa_offset 8
  78              		@ sp needed
  79 0032 10BD     		pop	{r4, pc}
  80              	.LVL10:
  81              	.L6:
  82              		.align	2
  83              	.L5:
  84 0034 00007A44 		.word	1148846080
  85 0038 00000000 		.word	.LC0
  86 003c 04000000 		.word	.LC1
  87              		.cfi_endproc
  88              	.LFE64:
  89              		.size	transmit, .-transmit
  90              		.global	__aeabi_f2d
  91              		.global	__aeabi_ddiv
  92              		.global	__aeabi_dmul
  93              		.global	__aeabi_dadd
  94              		.global	__aeabi_d2iz
  95              		.global	__aeabi_fcmpge
  96              		.section	.text.PWM_Controller,"ax",%progbits
  97              		.align	2
  98              		.global	PWM_Controller
  99              		.thumb
 100              		.thumb_func
 101              		.type	PWM_Controller, %function
 102              	PWM_Controller:
 103              	.LFB65:
ARM GAS  C:\Users\diego\AppData\Local\Temp\ccem3O8i.s 			page 4


  69:main.c        **** 
  70:main.c        **** void PWM_Controller(){
 104              		.loc 1 70 0
 105              		.cfi_startproc
 106              		@ args = 0, pretend = 0, frame = 0
 107              		@ frame_needed = 0, uses_anonymous_args = 0
 108 0000 38B5     		push	{r3, r4, r5, lr}
 109              		.cfi_def_cfa_offset 16
 110              		.cfi_offset 3, -16
 111              		.cfi_offset 4, -12
 112              		.cfi_offset 5, -8
 113              		.cfi_offset 14, -4
  71:main.c        ****     
  72:main.c        ****     pwm = (int16) ((fabs(mk)/V_MAX)*N_MAX+0.5); // Use abs para enteros
 114              		.loc 1 72 0
 115 0002 254D     		ldr	r5, .L17+8
 116 0004 2C68     		ldr	r4, [r5]	@ float
 117 0006 24F00040 		bic	r0, r4, #-2147483648
 118 000a FFF7FEFF 		bl	__aeabi_f2d
 119              	.LVL11:
 120 000e 0022     		movs	r2, #0
 121 0010 224B     		ldr	r3, .L17+12
 122 0012 FFF7FEFF 		bl	__aeabi_ddiv
 123              	.LVL12:
 124 0016 1EA3     		adr	r3, .L17
 125 0018 D3E90023 		ldrd	r2, [r3]
 126 001c FFF7FEFF 		bl	__aeabi_dmul
 127              	.LVL13:
 128 0020 0022     		movs	r2, #0
 129 0022 1F4B     		ldr	r3, .L17+16
 130 0024 FFF7FEFF 		bl	__aeabi_dadd
 131              	.LVL14:
 132 0028 0022     		movs	r2, #0
 133 002a 1E4B     		ldr	r3, .L17+20
 134 002c FFF7FEFF 		bl	__aeabi_dadd
 135              	.LVL15:
 136 0030 FFF7FEFF 		bl	__aeabi_d2iz
 137              	.LVL16:
 138 0034 00B2     		sxth	r0, r0
 139 0036 A880     		strh	r0, [r5, #4]	@ movhi
  73:main.c        ****     /* Satura el valor del PWM */
  74:main.c        ****     if (pwm > PWM_MAX) {
 140              		.loc 1 74 0
 141 0038 B0F57A7F 		cmp	r0, #1000
 142 003c 02DB     		blt	.L8
  75:main.c        ****         pwm = PWM_MAX;
 143              		.loc 1 75 0
 144 003e 40F2E732 		movw	r2, #999
 145 0042 AA80     		strh	r2, [r5, #4]	@ movhi
 146              	.L8:
  76:main.c        ****     }
  77:main.c        ****     /* Define la dirección del puente H */
  78:main.c        ****     if (mk >= 0) {
 147              		.loc 1 78 0
 148 0044 0021     		movs	r1, #0
 149 0046 2046     		mov	r0, r4
 150 0048 FFF7FEFF 		bl	__aeabi_fcmpge
ARM GAS  C:\Users\diego\AppData\Local\Temp\ccem3O8i.s 			page 5


 151              	.LVL17:
 152 004c 30B1     		cbz	r0, .L15
  79:main.c        ****         H_Dir1_Write(1);
 153              		.loc 1 79 0
 154 004e 0120     		movs	r0, #1
 155 0050 FFF7FEFF 		bl	H_Dir1_Write
 156              	.LVL18:
  80:main.c        ****         H_Dir2_Write(0);
 157              		.loc 1 80 0
 158 0054 0020     		movs	r0, #0
 159 0056 FFF7FEFF 		bl	H_Dir2_Write
 160              	.LVL19:
 161 005a 05E0     		b	.L11
 162              	.L15:
  81:main.c        ****         }
  82:main.c        ****     else {
  83:main.c        ****         H_Dir1_Write(0);
 163              		.loc 1 83 0
 164 005c 0020     		movs	r0, #0
 165 005e FFF7FEFF 		bl	H_Dir1_Write
 166              	.LVL20:
  84:main.c        ****         H_Dir2_Write(1);
 167              		.loc 1 84 0
 168 0062 0120     		movs	r0, #1
 169 0064 FFF7FEFF 		bl	H_Dir2_Write
 170              	.LVL21:
 171              	.L11:
  85:main.c        ****         }
  86:main.c        ****     if(Inicio)
 172              		.loc 1 86 0
 173 0068 0B4B     		ldr	r3, .L17+8
 174 006a 9B68     		ldr	r3, [r3, #8]
 175 006c 23B1     		cbz	r3, .L12
  87:main.c        ****         PWM_WriteCompare(pwm);
 176              		.loc 1 87 0
 177 006e 0A4B     		ldr	r3, .L17+8
 178 0070 9888     		ldrh	r0, [r3, #4]
 179 0072 FFF7FEFF 		bl	PWM_WriteCompare
 180              	.LVL22:
 181 0076 38BD     		pop	{r3, r4, r5, pc}
 182              	.L12:
  88:main.c        ****     else 
  89:main.c        ****         {
  90:main.c        ****         H_Dir1_Write(0);
 183              		.loc 1 90 0
 184 0078 0020     		movs	r0, #0
 185 007a FFF7FEFF 		bl	H_Dir1_Write
 186              	.LVL23:
  91:main.c        ****         H_Dir2_Write(0);
 187              		.loc 1 91 0
 188 007e 0020     		movs	r0, #0
 189 0080 FFF7FEFF 		bl	H_Dir2_Write
 190              	.LVL24:
  92:main.c        ****         PWM_WriteCompare(0);
 191              		.loc 1 92 0
 192 0084 0020     		movs	r0, #0
 193 0086 FFF7FEFF 		bl	PWM_WriteCompare
ARM GAS  C:\Users\diego\AppData\Local\Temp\ccem3O8i.s 			page 6


 194              	.LVL25:
 195 008a 38BD     		pop	{r3, r4, r5, pc}
 196              	.L18:
 197 008c AFF30080 		.align	3
 198              	.L17:
 199 0090 00000000 		.word	0
 200 0094 00388F40 		.word	1083127808
 201 0098 00000000 		.word	.LANCHOR0
 202 009c 00002840 		.word	1076363264
 203 00a0 0000F03F 		.word	1072693248
 204 00a4 0000E03F 		.word	1071644672
 205              		.cfi_endproc
 206              	.LFE65:
 207              		.size	PWM_Controller, .-PWM_Controller
 208              		.global	__aeabi_i2d
 209              		.global	__aeabi_d2f
 210              		.global	__aeabi_fcmplt
 211              		.global	__aeabi_fsub
 212              		.global	__aeabi_fcmpgt
 213              		.global	__aeabi_fadd
 214              		.section	.text.isr_Timer_Handler,"ax",%progbits
 215              		.align	2
 216              		.global	isr_Timer_Handler
 217              		.thumb
 218              		.thumb_func
 219              		.type	isr_Timer_Handler, %function
 220              	isr_Timer_Handler:
 221              	.LFB66:
  93:main.c        ****         }
  94:main.c        **** }
  95:main.c        **** 
  96:main.c        **** CY_ISR_PROTO(isr_Timer_Handler);
  97:main.c        **** 
  98:main.c        **** // Global vars
  99:main.c        **** float pk = 0;
 100:main.c        **** float ik = 0;
 101:main.c        **** float dk = 0;
 102:main.c        **** 
 103:main.c        **** CY_ISR(isr_Timer_Handler)
 104:main.c        **** {
 222              		.loc 1 104 0
 223              		.cfi_startproc
 224              		@ args = 0, pretend = 0, frame = 0
 225              		@ frame_needed = 0, uses_anonymous_args = 0
 226 0000 F8B5     		push	{r3, r4, r5, r6, r7, lr}
 227              		.cfi_def_cfa_offset 24
 228              		.cfi_offset 3, -24
 229              		.cfi_offset 4, -20
 230              		.cfi_offset 5, -16
 231              		.cfi_offset 6, -12
 232              		.cfi_offset 7, -8
 233              		.cfi_offset 14, -4
 105:main.c        ****     // Calculo de angulo
 106:main.c        ****     cnt1 = QuadDec_Sensor_GetCounter();
 234              		.loc 1 106 0
 235 0002 FFF7FEFF 		bl	QuadDec_Sensor_GetCounter
 236              	.LVL26:
ARM GAS  C:\Users\diego\AppData\Local\Temp\ccem3O8i.s 			page 7


 237 0006 444C     		ldr	r4, .L39+16
 238 0008 E060     		str	r0, [r4, #12]
 107:main.c        ****     angulo1 = 6.2832*(cnt1-4000)/(2*4000);
 239              		.loc 1 107 0
 240 000a A0F57A60 		sub	r0, r0, #4000
 241 000e FFF7FEFF 		bl	__aeabi_i2d
 242              	.LVL27:
 243 0012 3DA3     		adr	r3, .L39
 244 0014 D3E90023 		ldrd	r2, [r3]
 245 0018 FFF7FEFF 		bl	__aeabi_dmul
 246              	.LVL28:
 247 001c 0022     		movs	r2, #0
 248 001e 3F4B     		ldr	r3, .L39+20
 249 0020 FFF7FEFF 		bl	__aeabi_ddiv
 250              	.LVL29:
 251 0024 FFF7FEFF 		bl	__aeabi_d2f
 252              	.LVL30:
 253 0028 2061     		str	r0, [r4, #16]	@ float
 108:main.c        ****     
 109:main.c        ****     // Acota el angulo maximo y apaga el motor
 110:main.c        ****     if(Inicio == 1 && (fabs(angulo1) < MaxAnguloPendulo)){
 254              		.loc 1 110 0
 255 002a A368     		ldr	r3, [r4, #8]
 256 002c 012B     		cmp	r3, #1
 257 002e 61D1     		bne	.L20
 258 0030 0546     		mov	r5, r0
 259              		.loc 1 110 0 is_stmt 0 discriminator 1
 260 0032 20F00040 		bic	r0, r0, #-2147483648
 261 0036 4FF07F51 		mov	r1, #1069547520
 262 003a FFF7FEFF 		bl	__aeabi_fcmplt
 263              	.LVL31:
 264 003e 0028     		cmp	r0, #0
 265 0040 58D0     		beq	.L20
 266              	.LBB2:
 111:main.c        ****     
 112:main.c        ****         // Error
 113:main.c        ****         float ek = REFERENCE - angulo1;   // speed error
 267              		.loc 1 113 0 is_stmt 1
 268 0042 2946     		mov	r1, r5
 269 0044 0020     		movs	r0, #0
 270 0046 FFF7FEFF 		bl	__aeabi_fsub
 271              	.LVL32:
 272 004a 0546     		mov	r5, r0
 273              	.LVL33:
 114:main.c        ****         
 115:main.c        ****         // Integral
 116:main.c        ****         ik = ek*IT + ikLast;
 274              		.loc 1 116 0
 275 004c 3449     		ldr	r1, .L39+24
 276 004e FFF7FEFF 		bl	__aeabi_fmul
 277              	.LVL34:
 278 0052 FFF7FEFF 		bl	__aeabi_f2d
 279              	.LVL35:
 280 0056 2EA3     		adr	r3, .L39+8
 281 0058 D3E90023 		ldrd	r2, [r3]
 282 005c FFF7FEFF 		bl	__aeabi_dmul
 283              	.LVL36:
ARM GAS  C:\Users\diego\AppData\Local\Temp\ccem3O8i.s 			page 8


 284 0060 0646     		mov	r6, r0
 285 0062 0F46     		mov	r7, r1
 286 0064 6069     		ldr	r0, [r4, #20]	@ float
 287 0066 FFF7FEFF 		bl	__aeabi_f2d
 288              	.LVL37:
 289 006a 3246     		mov	r2, r6
 290 006c 3B46     		mov	r3, r7
 291 006e FFF7FEFF 		bl	__aeabi_dadd
 292              	.LVL38:
 293 0072 FFF7FEFF 		bl	__aeabi_d2f
 294              	.LVL39:
 295 0076 0646     		mov	r6, r0
 296 0078 A061     		str	r0, [r4, #24]	@ float
 117:main.c        ****         // Maximo valor integrativo
 118:main.c        ****         if (ik > MAXINTEGRAL){
 297              		.loc 1 118 0
 298 007a 2A49     		ldr	r1, .L39+28
 299 007c FFF7FEFF 		bl	__aeabi_fcmpgt
 300              	.LVL40:
 301 0080 10B1     		cbz	r0, .L36
 119:main.c        ****             ik = MAXINTEGRAL;
 302              		.loc 1 119 0
 303 0082 284A     		ldr	r2, .L39+28
 304 0084 A261     		str	r2, [r4, #24]	@ float
 305 0086 07E0     		b	.L24
 306              	.L36:
 120:main.c        ****         }
 121:main.c        ****         else if (ik < -MAXINTEGRAL){
 307              		.loc 1 121 0
 308 0088 2749     		ldr	r1, .L39+32
 309 008a 3046     		mov	r0, r6
 310 008c FFF7FEFF 		bl	__aeabi_fcmplt
 311              	.LVL41:
 312 0090 10B1     		cbz	r0, .L24
 122:main.c        ****             ik = -MAXINTEGRAL;
 313              		.loc 1 122 0
 314 0092 254A     		ldr	r2, .L39+32
 315 0094 204B     		ldr	r3, .L39+16
 316 0096 9A61     		str	r2, [r3, #24]	@ float
 317              	.L24:
 123:main.c        ****         }  
 124:main.c        ****         
 125:main.c        ****         // Derivador
 126:main.c        ****         //dk = (DN*(ek - ekLast)+dkLast)/UNONTS;
 127:main.c        ****         dk = DF*(ek - ekLast);
 318              		.loc 1 127 0
 319 0098 1F4C     		ldr	r4, .L39+16
 320 009a E169     		ldr	r1, [r4, #28]	@ float
 321 009c 2846     		mov	r0, r5
 322 009e FFF7FEFF 		bl	__aeabi_fsub
 323              	.LVL42:
 324 00a2 2249     		ldr	r1, .L39+36
 325 00a4 FFF7FEFF 		bl	__aeabi_fmul
 326              	.LVL43:
 327 00a8 0646     		mov	r6, r0
 328 00aa 2062     		str	r0, [r4, #32]	@ float
 128:main.c        ****         if(dk > 20)
ARM GAS  C:\Users\diego\AppData\Local\Temp\ccem3O8i.s 			page 9


 329              		.loc 1 128 0
 330 00ac 2049     		ldr	r1, .L39+40
 331 00ae FFF7FEFF 		bl	__aeabi_fcmpgt
 332              	.LVL44:
 333 00b2 10B1     		cbz	r0, .L37
 129:main.c        ****             dk = 20;
 334              		.loc 1 129 0
 335 00b4 1E4A     		ldr	r2, .L39+40
 336 00b6 2262     		str	r2, [r4, #32]	@ float
 337 00b8 07E0     		b	.L28
 338              	.L37:
 130:main.c        ****         else if(dk < -20)
 339              		.loc 1 130 0
 340 00ba 1E49     		ldr	r1, .L39+44
 341 00bc 3046     		mov	r0, r6
 342 00be FFF7FEFF 		bl	__aeabi_fcmplt
 343              	.LVL45:
 344 00c2 10B1     		cbz	r0, .L28
 131:main.c        ****             dk = -20;
 345              		.loc 1 131 0
 346 00c4 1B4A     		ldr	r2, .L39+44
 347 00c6 144B     		ldr	r3, .L39+16
 348 00c8 1A62     		str	r2, [r3, #32]	@ float
 349              	.L28:
 132:main.c        ****         
 133:main.c        ****         //dk = 0;
 134:main.c        ****         // Proporcional
 135:main.c        ****         pk = KP*ek;
 350              		.loc 1 135 0
 351 00ca 1B49     		ldr	r1, .L39+48
 352 00cc 2846     		mov	r0, r5
 353 00ce FFF7FEFF 		bl	__aeabi_fmul
 354              	.LVL46:
 355 00d2 114C     		ldr	r4, .L39+16
 356 00d4 6062     		str	r0, [r4, #36]	@ float
 136:main.c        ****         // PID
 137:main.c        ****         mk = pk + ik + dk;
 357              		.loc 1 137 0
 358 00d6 A169     		ldr	r1, [r4, #24]	@ float
 359 00d8 FFF7FEFF 		bl	__aeabi_fadd
 360              	.LVL47:
 361 00dc 216A     		ldr	r1, [r4, #32]	@ float
 362 00de FFF7FEFF 		bl	__aeabi_fadd
 363              	.LVL48:
 364 00e2 2060     		str	r0, [r4]	@ float
 138:main.c        ****        
 139:main.c        ****         // Execute
 140:main.c        ****         PWM_Controller();
 365              		.loc 1 140 0
 366 00e4 FFF7FEFF 		bl	PWM_Controller
 367              	.LVL49:
 141:main.c        ****         
 142:main.c        ****         // Acc
 143:main.c        ****         ikLast = ik;
 368              		.loc 1 143 0
 369 00e8 A369     		ldr	r3, [r4, #24]	@ float
 370 00ea 6361     		str	r3, [r4, #20]	@ float
ARM GAS  C:\Users\diego\AppData\Local\Temp\ccem3O8i.s 			page 10


 144:main.c        ****         ekLast = ek;
 371              		.loc 1 144 0
 372 00ec E561     		str	r5, [r4, #28]	@ float
 145:main.c        ****         dkLast = dk;
 373              		.loc 1 145 0
 374 00ee 236A     		ldr	r3, [r4, #32]	@ float
 375 00f0 A362     		str	r3, [r4, #40]	@ float
 376              	.LBE2:
 110:main.c        ****     
 377              		.loc 1 110 0
 378 00f2 F8BD     		pop	{r3, r4, r5, r6, r7, pc}
 379              	.LVL50:
 380              	.L20:
 146:main.c        ****     }
 147:main.c        ****     else{
 148:main.c        ****         Inicio = 0;
 381              		.loc 1 148 0
 382 00f4 084B     		ldr	r3, .L39+16
 383 00f6 0022     		movs	r2, #0
 384 00f8 9A60     		str	r2, [r3, #8]
 149:main.c        ****         mk = 0;
 385              		.loc 1 149 0
 386 00fa 0022     		movs	r2, #0
 387 00fc 1A60     		str	r2, [r3]	@ float
 150:main.c        ****         PWM_Controller();
 388              		.loc 1 150 0
 389 00fe FFF7FEFF 		bl	PWM_Controller
 390              	.LVL51:
 391 0102 F8BD     		pop	{r3, r4, r5, r6, r7, pc}
 392              	.L40:
 393 0104 AFF30080 		.align	3
 394              	.L39:
 395 0108 A7E8482E 		.word	776530087
 396 010c FF211940 		.word	1075388927
 397 0110 7B14AE47 		.word	1202590843
 398 0114 E17A743F 		.word	1064598241
 399 0118 00000000 		.word	.LANCHOR0
 400 011c 0040BF40 		.word	1086275584
 401 0120 00005C43 		.word	1130102784
 402 0124 00003041 		.word	1093664768
 403 0128 000030C1 		.word	-1053818880
 404 012c 00008C42 		.word	1116471296
 405 0130 0000A041 		.word	1101004800
 406 0134 0000A0C1 		.word	-1046478848
 407 0138 00003442 		.word	1110704128
 408              		.cfi_endproc
 409              	.LFE66:
 410              		.size	isr_Timer_Handler, .-isr_Timer_Handler
 411              		.global	__aeabi_i2f
 412              		.section	.text.main,"ax",%progbits
 413              		.align	2
 414              		.global	main
 415              		.thumb
 416              		.thumb_func
 417              		.type	main, %function
 418              	main:
 419              	.LFB67:
ARM GAS  C:\Users\diego\AppData\Local\Temp\ccem3O8i.s 			page 11


 151:main.c        ****     }
 152:main.c        **** }
 153:main.c        **** 
 154:main.c        **** uint c = 0;
 155:main.c        **** 
 156:main.c        **** int main(void)
 157:main.c        **** {
 420              		.loc 1 157 0
 421              		.cfi_startproc
 422              		@ args = 0, pretend = 0, frame = 0
 423              		@ frame_needed = 0, uses_anonymous_args = 0
 424 0000 10B5     		push	{r4, lr}
 425              		.cfi_def_cfa_offset 8
 426              		.cfi_offset 4, -8
 427              		.cfi_offset 14, -4
 158:main.c        ****   	/* Initialize*/
 159:main.c        ****   	// Quadrature sensor
 160:main.c        ****     QuadDec_Sensor_Start(); 
 428              		.loc 1 160 0
 429 0002 FFF7FEFF 		bl	QuadDec_Sensor_Start
 430              	.LVL52:
 161:main.c        ****     QuadDec_Sensor_SetCounter(0);
 431              		.loc 1 161 0
 432 0006 0020     		movs	r0, #0
 433 0008 FFF7FEFF 		bl	QuadDec_Sensor_SetCounter
 434              	.LVL53:
 162:main.c        ****     
 163:main.c        ****     ADC_DelSig_1_Start();
 435              		.loc 1 163 0
 436 000c FFF7FEFF 		bl	ADC_DelSig_1_Start
 437              	.LVL54:
 164:main.c        ****     ADC_DelSig_1_StartConvert();
 438              		.loc 1 164 0
 439 0010 FFF7FEFF 		bl	ADC_DelSig_1_StartConvert
 440              	.LVL55:
 165:main.c        ****     ADC_DelSig_1_IsEndConversion(ADC_DelSig_1_WAIT_FOR_RESULT);
 441              		.loc 1 165 0
 442 0014 0020     		movs	r0, #0
 443 0016 FFF7FEFF 		bl	ADC_DelSig_1_IsEndConversion
 444              	.LVL56:
 166:main.c        ****     
 167:main.c        ****     Timer_Start();
 445              		.loc 1 167 0
 446 001a FFF7FEFF 		bl	Timer_Start
 447              	.LVL57:
 168:main.c        ****     PWM_Start();
 448              		.loc 1 168 0
 449 001e FFF7FEFF 		bl	PWM_Start
 450              	.LVL58:
 169:main.c        ****     
 170:main.c        ****   	// UART
 171:main.c        ****   	UART_1_Start();  
 451              		.loc 1 171 0
 452 0022 FFF7FEFF 		bl	UART_1_Start
 453              	.LVL59:
 172:main.c        ****   	// interrupts
 173:main.c        ****     isr_Timer_StartEx(isr_Timer_Handler);
ARM GAS  C:\Users\diego\AppData\Local\Temp\ccem3O8i.s 			page 12


 454              		.loc 1 173 0
 455 0026 1C48     		ldr	r0, .L47
 456 0028 FFF7FEFF 		bl	isr_Timer_StartEx
 457              	.LVL60:
 174:main.c        ****     
 175:main.c        ****     
 176:main.c        ****     CyGlobalIntEnable; /* Enable global interrupts. */
 458              		.loc 1 176 0
 459              		.syntax unified
 460              	@ 176 "main.c" 1
 461 002c 62B6     		CPSIE   i
 462              	@ 0 "" 2
 463              		.thumb
 464              		.syntax unified
 465              	.L45:
 466              	.LBB3:
 177:main.c        ****     
 178:main.c        ****     
 179:main.c        ****     /* Place your initialization/startup code here (e.g. MyInst_Start()) */
 180:main.c        ****     for(;;)
 181:main.c        ****     {
 182:main.c        ****        
 183:main.c        ****         c++;
 467              		.loc 1 183 0
 468 002e 1B4A     		ldr	r2, .L47+4
 469 0030 D36A     		ldr	r3, [r2, #44]
 470 0032 0133     		adds	r3, r3, #1
 471 0034 D362     		str	r3, [r2, #44]
 184:main.c        ****         if(c <= 10){
 472              		.loc 1 184 0
 473 0036 0A2B     		cmp	r3, #10
 474 0038 1CD8     		bhi	.L42
 185:main.c        ****             transmit(angulo1, 1); // Tab
 475              		.loc 1 185 0
 476 003a 1446     		mov	r4, r2
 477 003c 0121     		movs	r1, #1
 478 003e 1069     		ldr	r0, [r2, #16]	@ float
 479 0040 FFF7FEFF 		bl	transmit
 480              	.LVL61:
 186:main.c        ****             //transmit(mk, 0);
 187:main.c        ****             transmit(mk, 1);
 481              		.loc 1 187 0
 482 0044 0121     		movs	r1, #1
 483 0046 2068     		ldr	r0, [r4]	@ float
 484 0048 FFF7FEFF 		bl	transmit
 485              	.LVL62:
 188:main.c        ****             transmit(pk, 1);
 486              		.loc 1 188 0
 487 004c 0121     		movs	r1, #1
 488 004e 606A     		ldr	r0, [r4, #36]	@ float
 489 0050 FFF7FEFF 		bl	transmit
 490              	.LVL63:
 189:main.c        ****             transmit(ik, 1);
 491              		.loc 1 189 0
 492 0054 0121     		movs	r1, #1
 493 0056 A069     		ldr	r0, [r4, #24]	@ float
 494 0058 FFF7FEFF 		bl	transmit
ARM GAS  C:\Users\diego\AppData\Local\Temp\ccem3O8i.s 			page 13


 495              	.LVL64:
 190:main.c        ****             transmit(dk, 1);
 496              		.loc 1 190 0
 497 005c 0121     		movs	r1, #1
 498 005e 206A     		ldr	r0, [r4, #32]	@ float
 499 0060 FFF7FEFF 		bl	transmit
 500              	.LVL65:
 191:main.c        ****             transmit(pwm, 0);
 501              		.loc 1 191 0
 502 0064 B4F90400 		ldrsh	r0, [r4, #4]
 503 0068 FFF7FEFF 		bl	__aeabi_i2f
 504              	.LVL66:
 505 006c 0021     		movs	r1, #0
 506 006e FFF7FEFF 		bl	transmit
 507              	.LVL67:
 508 0072 02E0     		b	.L43
 509              	.L42:
 192:main.c        ****         }
 193:main.c        ****         else
 194:main.c        ****         {
 195:main.c        ****             c = 0;
 510              		.loc 1 195 0
 511 0074 0022     		movs	r2, #0
 512 0076 094B     		ldr	r3, .L47+4
 513 0078 DA62     		str	r2, [r3, #44]
 514              	.L43:
 196:main.c        ****         }
 197:main.c        ****       	 
 198:main.c        ****         // Boton de inicio  
 199:main.c        ****         uint8 START_1 = START_BTN_Read();
 515              		.loc 1 199 0
 516 007a FFF7FEFF 		bl	START_BTN_Read
 517              	.LVL68:
 200:main.c        ****         if (START_1 == 0){
 518              		.loc 1 200 0
 519 007e 10B9     		cbnz	r0, .L44
 201:main.c        ****             Inicio = 1;
 520              		.loc 1 201 0
 521 0080 0122     		movs	r2, #1
 522 0082 064B     		ldr	r3, .L47+4
 523 0084 9A60     		str	r2, [r3, #8]
 524              	.L44:
 202:main.c        ****         }
 203:main.c        ****         
 204:main.c        ****         // Indicador de inicio
 205:main.c        ****         Pin_2_Write(Inicio);
 525              		.loc 1 205 0
 526 0086 054B     		ldr	r3, .L47+4
 527 0088 187A     		ldrb	r0, [r3, #8]	@ zero_extendqisi2
 528              	.LVL69:
 529 008a FFF7FEFF 		bl	Pin_2_Write
 530              	.LVL70:
 206:main.c        ****     
 207:main.c        ****       	CyDelay(5u);
 531              		.loc 1 207 0
 532 008e 0520     		movs	r0, #5
 533 0090 FFF7FEFF 		bl	CyDelay
ARM GAS  C:\Users\diego\AppData\Local\Temp\ccem3O8i.s 			page 14


 534              	.LVL71:
 535              	.LBE3:
 208:main.c        ****     }
 536              		.loc 1 208 0
 537 0094 CBE7     		b	.L45
 538              	.L48:
 539 0096 00BF     		.align	2
 540              	.L47:
 541 0098 00000000 		.word	isr_Timer_Handler
 542 009c 00000000 		.word	.LANCHOR0
 543              		.cfi_endproc
 544              	.LFE67:
 545              		.size	main, .-main
 546              		.global	c
 547              		.global	dk
 548              		.global	ik
 549              		.global	pk
 550              		.global	pwm
 551              		.global	mk
 552              		.global	ekLast
 553              		.global	dkLast
 554              		.global	ikLast
 555              		.global	Tension
 556              		.global	adcMeas
 557              		.global	angulo1
 558              		.global	cnt1
 559              		.global	Inicio
 560              		.section	.rodata.str1.4,"aMS",%progbits,1
 561              		.align	2
 562              	.LC0:
 563 0000 25640900 		.ascii	"%d\011\000"
 564              	.LC1:
 565 0004 25640A00 		.ascii	"%d\012\000"
 566              		.bss
 567              		.align	2
 568              		.set	.LANCHOR0,. + 0
 569              		.type	mk, %object
 570              		.size	mk, 4
 571              	mk:
 572 0000 00000000 		.space	4
 573              		.type	pwm, %object
 574              		.size	pwm, 2
 575              	pwm:
 576 0004 0000     		.space	2
 577 0006 0000     		.space	2
 578              		.type	Inicio, %object
 579              		.size	Inicio, 4
 580              	Inicio:
 581 0008 00000000 		.space	4
 582              		.type	cnt1, %object
 583              		.size	cnt1, 4
 584              	cnt1:
 585 000c 00000000 		.space	4
 586              		.type	angulo1, %object
 587              		.size	angulo1, 4
 588              	angulo1:
 589 0010 00000000 		.space	4
ARM GAS  C:\Users\diego\AppData\Local\Temp\ccem3O8i.s 			page 15


 590              		.type	ikLast, %object
 591              		.size	ikLast, 4
 592              	ikLast:
 593 0014 00000000 		.space	4
 594              		.type	ik, %object
 595              		.size	ik, 4
 596              	ik:
 597 0018 00000000 		.space	4
 598              		.type	ekLast, %object
 599              		.size	ekLast, 4
 600              	ekLast:
 601 001c 00000000 		.space	4
 602              		.type	dk, %object
 603              		.size	dk, 4
 604              	dk:
 605 0020 00000000 		.space	4
 606              		.type	pk, %object
 607              		.size	pk, 4
 608              	pk:
 609 0024 00000000 		.space	4
 610              		.type	dkLast, %object
 611              		.size	dkLast, 4
 612              	dkLast:
 613 0028 00000000 		.space	4
 614              		.type	c, %object
 615              		.size	c, 4
 616              	c:
 617 002c 00000000 		.space	4
 618              		.type	Tension, %object
 619              		.size	Tension, 4
 620              	Tension:
 621 0030 00000000 		.space	4
 622              		.type	adcMeas, %object
 623              		.size	adcMeas, 4
 624              	adcMeas:
 625 0034 00000000 		.space	4
 626              		.text
 627              	.Letext0:
 628              		.file 2 "c:\\program files (x86)\\cypress\\psoc creator\\4.2\\psoc creator\\import\\gnu\\arm\\5.4.
 629              		.file 3 "c:\\program files (x86)\\cypress\\psoc creator\\4.2\\psoc creator\\import\\gnu\\arm\\5.4.
 630              		.file 4 "Generated_Source\\PSoC5/cytypes.h"
 631              		.file 5 "c:\\program files (x86)\\cypress\\psoc creator\\4.2\\psoc creator\\import\\gnu\\arm\\5.4.
 632              		.file 6 "Generated_Source\\PSoC5/core_cm3.h"
 633              		.file 7 "c:\\program files (x86)\\cypress\\psoc creator\\4.2\\psoc creator\\import\\gnu\\arm\\5.4.
 634              		.file 8 "Generated_Source\\PSoC5/UART_1.h"
 635              		.file 9 "Generated_Source\\PSoC5/H_Dir1.h"
 636              		.file 10 "Generated_Source\\PSoC5/H_Dir2.h"
 637              		.file 11 "Generated_Source\\PSoC5/PWM.h"
 638              		.file 12 "Generated_Source\\PSoC5/QuadDec_Sensor.h"
 639              		.file 13 "Generated_Source\\PSoC5/START_BTN.h"
 640              		.file 14 "Generated_Source\\PSoC5/Pin_2.h"
 641              		.file 15 "Generated_Source\\PSoC5/CyLib.h"
 642              		.file 16 "Generated_Source\\PSoC5/ADC_DelSig_1.h"
 643              		.file 17 "Generated_Source\\PSoC5/Timer.h"
 644              		.file 18 "Generated_Source\\PSoC5/isr_Timer.h"