ARM GAS  C:\Users\diego\AppData\Local\Temp\ccYPM1GK.s 			page 1


   1              		.syntax unified
   2              		.cpu cortex-m3
   3              		.fpu softvfp
   4              		.eabi_attribute 20, 1
   5              		.eabi_attribute 21, 1
   6              		.eabi_attribute 23, 3
   7              		.eabi_attribute 24, 1
   8              		.eabi_attribute 25, 1
   9              		.eabi_attribute 26, 1
  10              		.eabi_attribute 30, 1
  11              		.eabi_attribute 34, 1
  12              		.eabi_attribute 18, 4
  13              		.thumb
  14              		.syntax unified
  15              		.file	"cyfitter_cfg.c"
  16              		.text
  17              	.Ltext0:
  18              		.cfi_sections	.debug_frame
  19              		.section	.text.CyClockStartupError,"ax",%progbits
  20              		.align	2
  21              		.thumb
  22              		.thumb_func
  23              		.type	CyClockStartupError, %function
  24              	CyClockStartupError:
  25              	.LFB3:
  26              		.file 1 "Generated_Source\\PSoC5\\cyfitter_cfg.c"
   1:Generated_Source\PSoC5/cyfitter_cfg.c **** 
   2:Generated_Source\PSoC5/cyfitter_cfg.c **** /*******************************************************************************
   3:Generated_Source\PSoC5/cyfitter_cfg.c **** * File Name: cyfitter_cfg.c
   4:Generated_Source\PSoC5/cyfitter_cfg.c **** * 
   5:Generated_Source\PSoC5/cyfitter_cfg.c **** * PSoC Creator  4.2
   6:Generated_Source\PSoC5/cyfitter_cfg.c **** *
   7:Generated_Source\PSoC5/cyfitter_cfg.c **** * Description:
   8:Generated_Source\PSoC5/cyfitter_cfg.c **** * This file contains device initialization code.
   9:Generated_Source\PSoC5/cyfitter_cfg.c **** * Except for the user defined sections in CyClockStartupError(), this file should not be modified.
  10:Generated_Source\PSoC5/cyfitter_cfg.c **** * This file is automatically generated by PSoC Creator.
  11:Generated_Source\PSoC5/cyfitter_cfg.c **** *
  12:Generated_Source\PSoC5/cyfitter_cfg.c **** ********************************************************************************
  13:Generated_Source\PSoC5/cyfitter_cfg.c **** * Copyright (c) 2007-2018 Cypress Semiconductor.  All rights reserved.
  14:Generated_Source\PSoC5/cyfitter_cfg.c **** * You may use this file only in accordance with the license, terms, conditions, 
  15:Generated_Source\PSoC5/cyfitter_cfg.c **** * disclaimers, and limitations in the end user license agreement accompanying 
  16:Generated_Source\PSoC5/cyfitter_cfg.c **** * the software package with which this file was provided.
  17:Generated_Source\PSoC5/cyfitter_cfg.c **** ********************************************************************************/
  18:Generated_Source\PSoC5/cyfitter_cfg.c **** 
  19:Generated_Source\PSoC5/cyfitter_cfg.c **** #include <string.h>
  20:Generated_Source\PSoC5/cyfitter_cfg.c **** #include "cytypes.h"
  21:Generated_Source\PSoC5/cyfitter_cfg.c **** #include "cydevice_trm.h"
  22:Generated_Source\PSoC5/cyfitter_cfg.c **** #include "cyfitter.h"
  23:Generated_Source\PSoC5/cyfitter_cfg.c **** #include "CyLib.h"
  24:Generated_Source\PSoC5/cyfitter_cfg.c **** #include "cyfitter_cfg.h"
  25:Generated_Source\PSoC5/cyfitter_cfg.c **** #include "cyapicallbacks.h"
  26:Generated_Source\PSoC5/cyfitter_cfg.c **** 
  27:Generated_Source\PSoC5/cyfitter_cfg.c **** #define CY_NEED_CYCLOCKSTARTUPERROR 1
  28:Generated_Source\PSoC5/cyfitter_cfg.c **** 
  29:Generated_Source\PSoC5/cyfitter_cfg.c **** 
  30:Generated_Source\PSoC5/cyfitter_cfg.c **** #if defined(__GNUC__) || defined(__ARMCC_VERSION)
  31:Generated_Source\PSoC5/cyfitter_cfg.c ****     #define CYPACKED 
ARM GAS  C:\Users\diego\AppData\Local\Temp\ccYPM1GK.s 			page 2


  32:Generated_Source\PSoC5/cyfitter_cfg.c ****     #define CYPACKED_ATTR __attribute__ ((packed))
  33:Generated_Source\PSoC5/cyfitter_cfg.c ****     #define CYALIGNED __attribute__ ((aligned))
  34:Generated_Source\PSoC5/cyfitter_cfg.c ****     #define CY_CFG_UNUSED __attribute__ ((unused))
  35:Generated_Source\PSoC5/cyfitter_cfg.c ****     #ifndef CY_CFG_SECTION
  36:Generated_Source\PSoC5/cyfitter_cfg.c ****         #define CY_CFG_SECTION __attribute__ ((section(".psocinit")))
  37:Generated_Source\PSoC5/cyfitter_cfg.c ****     #endif
  38:Generated_Source\PSoC5/cyfitter_cfg.c ****     
  39:Generated_Source\PSoC5/cyfitter_cfg.c ****     #if defined(__ARMCC_VERSION)
  40:Generated_Source\PSoC5/cyfitter_cfg.c ****         #define CY_CFG_MEMORY_BARRIER() __memory_changed()
  41:Generated_Source\PSoC5/cyfitter_cfg.c ****     #else
  42:Generated_Source\PSoC5/cyfitter_cfg.c ****         #define CY_CFG_MEMORY_BARRIER() __sync_synchronize()
  43:Generated_Source\PSoC5/cyfitter_cfg.c ****     #endif
  44:Generated_Source\PSoC5/cyfitter_cfg.c ****     
  45:Generated_Source\PSoC5/cyfitter_cfg.c **** #elif defined(__ICCARM__)
  46:Generated_Source\PSoC5/cyfitter_cfg.c ****     #include <intrinsics.h>
  47:Generated_Source\PSoC5/cyfitter_cfg.c **** 
  48:Generated_Source\PSoC5/cyfitter_cfg.c ****     #define CYPACKED __packed
  49:Generated_Source\PSoC5/cyfitter_cfg.c ****     #define CYPACKED_ATTR 
  50:Generated_Source\PSoC5/cyfitter_cfg.c ****     #define CYALIGNED _Pragma("data_alignment=4")
  51:Generated_Source\PSoC5/cyfitter_cfg.c ****     #define CY_CFG_UNUSED _Pragma("diag_suppress=Pe177")
  52:Generated_Source\PSoC5/cyfitter_cfg.c ****     #define CY_CFG_SECTION _Pragma("location=\".psocinit\"")
  53:Generated_Source\PSoC5/cyfitter_cfg.c ****     
  54:Generated_Source\PSoC5/cyfitter_cfg.c ****     #define CY_CFG_MEMORY_BARRIER() __DMB()
  55:Generated_Source\PSoC5/cyfitter_cfg.c ****     
  56:Generated_Source\PSoC5/cyfitter_cfg.c **** #else
  57:Generated_Source\PSoC5/cyfitter_cfg.c ****     #error Unsupported toolchain
  58:Generated_Source\PSoC5/cyfitter_cfg.c **** #endif
  59:Generated_Source\PSoC5/cyfitter_cfg.c **** 
  60:Generated_Source\PSoC5/cyfitter_cfg.c **** #ifndef CYCODE
  61:Generated_Source\PSoC5/cyfitter_cfg.c ****     #define CYCODE
  62:Generated_Source\PSoC5/cyfitter_cfg.c **** #endif
  63:Generated_Source\PSoC5/cyfitter_cfg.c **** #ifndef CYDATA
  64:Generated_Source\PSoC5/cyfitter_cfg.c ****     #define CYDATA
  65:Generated_Source\PSoC5/cyfitter_cfg.c **** #endif
  66:Generated_Source\PSoC5/cyfitter_cfg.c **** #ifndef CYFAR
  67:Generated_Source\PSoC5/cyfitter_cfg.c ****     #define CYFAR
  68:Generated_Source\PSoC5/cyfitter_cfg.c **** #endif
  69:Generated_Source\PSoC5/cyfitter_cfg.c **** #ifndef CYXDATA
  70:Generated_Source\PSoC5/cyfitter_cfg.c ****     #define CYXDATA
  71:Generated_Source\PSoC5/cyfitter_cfg.c **** #endif
  72:Generated_Source\PSoC5/cyfitter_cfg.c **** 
  73:Generated_Source\PSoC5/cyfitter_cfg.c **** 
  74:Generated_Source\PSoC5/cyfitter_cfg.c **** CY_CFG_UNUSED
  75:Generated_Source\PSoC5/cyfitter_cfg.c **** static void CYMEMZERO(void *s, size_t n);
  76:Generated_Source\PSoC5/cyfitter_cfg.c **** CY_CFG_UNUSED
  77:Generated_Source\PSoC5/cyfitter_cfg.c **** static void CYMEMZERO(void *s, size_t n)
  78:Generated_Source\PSoC5/cyfitter_cfg.c **** {
  79:Generated_Source\PSoC5/cyfitter_cfg.c **** 	(void)memset(s, 0, n);
  80:Generated_Source\PSoC5/cyfitter_cfg.c **** }
  81:Generated_Source\PSoC5/cyfitter_cfg.c **** CY_CFG_UNUSED
  82:Generated_Source\PSoC5/cyfitter_cfg.c **** static void CYCONFIGCPY(void *dest, const void *src, size_t n);
  83:Generated_Source\PSoC5/cyfitter_cfg.c **** CY_CFG_UNUSED
  84:Generated_Source\PSoC5/cyfitter_cfg.c **** static void CYCONFIGCPY(void *dest, const void *src, size_t n)
  85:Generated_Source\PSoC5/cyfitter_cfg.c **** {
  86:Generated_Source\PSoC5/cyfitter_cfg.c **** 	(void)memcpy(dest, src, n);
  87:Generated_Source\PSoC5/cyfitter_cfg.c **** }
  88:Generated_Source\PSoC5/cyfitter_cfg.c **** CY_CFG_UNUSED
ARM GAS  C:\Users\diego\AppData\Local\Temp\ccYPM1GK.s 			page 3


  89:Generated_Source\PSoC5/cyfitter_cfg.c **** static void CYCONFIGCPYCODE(void *dest, const void *src, size_t n);
  90:Generated_Source\PSoC5/cyfitter_cfg.c **** CY_CFG_UNUSED
  91:Generated_Source\PSoC5/cyfitter_cfg.c **** static void CYCONFIGCPYCODE(void *dest, const void *src, size_t n)
  92:Generated_Source\PSoC5/cyfitter_cfg.c **** {
  93:Generated_Source\PSoC5/cyfitter_cfg.c **** 	(void)memcpy(dest, src, n);
  94:Generated_Source\PSoC5/cyfitter_cfg.c **** }
  95:Generated_Source\PSoC5/cyfitter_cfg.c **** 
  96:Generated_Source\PSoC5/cyfitter_cfg.c **** 
  97:Generated_Source\PSoC5/cyfitter_cfg.c **** 
  98:Generated_Source\PSoC5/cyfitter_cfg.c **** 
  99:Generated_Source\PSoC5/cyfitter_cfg.c **** /* Clock startup error codes                                                   */
 100:Generated_Source\PSoC5/cyfitter_cfg.c **** #define CYCLOCKSTART_NO_ERROR    0u
 101:Generated_Source\PSoC5/cyfitter_cfg.c **** #define CYCLOCKSTART_XTAL_ERROR  1u
 102:Generated_Source\PSoC5/cyfitter_cfg.c **** #define CYCLOCKSTART_32KHZ_ERROR 2u
 103:Generated_Source\PSoC5/cyfitter_cfg.c **** #define CYCLOCKSTART_PLL_ERROR   3u
 104:Generated_Source\PSoC5/cyfitter_cfg.c **** #define CYCLOCKSTART_FLL_ERROR   4u
 105:Generated_Source\PSoC5/cyfitter_cfg.c **** #define CYCLOCKSTART_WCO_ERROR   5u
 106:Generated_Source\PSoC5/cyfitter_cfg.c **** 
 107:Generated_Source\PSoC5/cyfitter_cfg.c **** 
 108:Generated_Source\PSoC5/cyfitter_cfg.c **** #ifdef CY_NEED_CYCLOCKSTARTUPERROR
 109:Generated_Source\PSoC5/cyfitter_cfg.c **** /*******************************************************************************
 110:Generated_Source\PSoC5/cyfitter_cfg.c **** * Function Name: CyClockStartupError
 111:Generated_Source\PSoC5/cyfitter_cfg.c **** ********************************************************************************
 112:Generated_Source\PSoC5/cyfitter_cfg.c **** * Summary:
 113:Generated_Source\PSoC5/cyfitter_cfg.c **** *  If an error is encountered during clock configuration (crystal startup error,
 114:Generated_Source\PSoC5/cyfitter_cfg.c **** *  PLL lock error, etc.), the system will end up here.  Unless reimplemented by
 115:Generated_Source\PSoC5/cyfitter_cfg.c **** *  the customer, this function will stop in an infinite loop.
 116:Generated_Source\PSoC5/cyfitter_cfg.c **** *
 117:Generated_Source\PSoC5/cyfitter_cfg.c **** * Parameters:
 118:Generated_Source\PSoC5/cyfitter_cfg.c **** *   void
 119:Generated_Source\PSoC5/cyfitter_cfg.c **** *
 120:Generated_Source\PSoC5/cyfitter_cfg.c **** * Return:
 121:Generated_Source\PSoC5/cyfitter_cfg.c **** *   void
 122:Generated_Source\PSoC5/cyfitter_cfg.c **** *
 123:Generated_Source\PSoC5/cyfitter_cfg.c **** *******************************************************************************/
 124:Generated_Source\PSoC5/cyfitter_cfg.c **** CY_CFG_UNUSED
 125:Generated_Source\PSoC5/cyfitter_cfg.c **** static void CyClockStartupError(uint8 errorCode);
 126:Generated_Source\PSoC5/cyfitter_cfg.c **** CY_CFG_UNUSED
 127:Generated_Source\PSoC5/cyfitter_cfg.c **** static void CyClockStartupError(uint8 errorCode)
 128:Generated_Source\PSoC5/cyfitter_cfg.c **** {
  27              		.loc 1 128 0
  28              		.cfi_startproc
  29              		@ Volatile: function does not return.
  30              		@ args = 0, pretend = 0, frame = 0
  31              		@ frame_needed = 0, uses_anonymous_args = 0
  32              		@ link register save eliminated.
  33              	.LVL0:
  34              	.L2:
  35 0000 FEE7     		b	.L2
  36              		.cfi_endproc
  37              	.LFE3:
  38              		.size	CyClockStartupError, .-CyClockStartupError
  39 0002 00BF     		.section	.text.cfg_write_bytes32,"ax",%progbits
  40              		.align	2
  41              		.thumb
  42              		.thumb_func
  43              		.type	cfg_write_bytes32, %function
ARM GAS  C:\Users\diego\AppData\Local\Temp\ccYPM1GK.s 			page 4


  44              	cfg_write_bytes32:
  45              	.LFB4:
 129:Generated_Source\PSoC5/cyfitter_cfg.c ****     /* To remove the compiler warning if errorCode not used.                */
 130:Generated_Source\PSoC5/cyfitter_cfg.c ****     errorCode = errorCode;
 131:Generated_Source\PSoC5/cyfitter_cfg.c **** 
 132:Generated_Source\PSoC5/cyfitter_cfg.c ****     /* If we have a clock startup error (bad MHz crystal, PLL lock, etc.),  */
 133:Generated_Source\PSoC5/cyfitter_cfg.c ****     /* we will end up here to allow the customer to implement something to  */
 134:Generated_Source\PSoC5/cyfitter_cfg.c ****     /* deal with the clock condition.                                       */
 135:Generated_Source\PSoC5/cyfitter_cfg.c **** 
 136:Generated_Source\PSoC5/cyfitter_cfg.c **** #ifdef CY_CFG_CLOCK_STARTUP_ERROR_CALLBACK
 137:Generated_Source\PSoC5/cyfitter_cfg.c ****     CY_CFG_Clock_Startup_ErrorCallback();
 138:Generated_Source\PSoC5/cyfitter_cfg.c **** #else
 139:Generated_Source\PSoC5/cyfitter_cfg.c ****     /*  If not using CY_CFG_CLOCK_STARTUP_ERROR_CALLBACK, place your clock startup code here. */
 140:Generated_Source\PSoC5/cyfitter_cfg.c ****     /* `#START CyClockStartupError` */
 141:Generated_Source\PSoC5/cyfitter_cfg.c **** 
 142:Generated_Source\PSoC5/cyfitter_cfg.c **** 
 143:Generated_Source\PSoC5/cyfitter_cfg.c **** 
 144:Generated_Source\PSoC5/cyfitter_cfg.c ****     /* `#END` */
 145:Generated_Source\PSoC5/cyfitter_cfg.c **** 
 146:Generated_Source\PSoC5/cyfitter_cfg.c ****     while(1) {}
 147:Generated_Source\PSoC5/cyfitter_cfg.c **** #endif /* CY_CFG_CLOCK_STARTUP_ERROR_CALLBACK */
 148:Generated_Source\PSoC5/cyfitter_cfg.c **** }
 149:Generated_Source\PSoC5/cyfitter_cfg.c **** #endif
 150:Generated_Source\PSoC5/cyfitter_cfg.c **** 
 151:Generated_Source\PSoC5/cyfitter_cfg.c **** #define CY_CFG_BASE_ADDR_COUNT 33u
 152:Generated_Source\PSoC5/cyfitter_cfg.c **** CYPACKED typedef struct
 153:Generated_Source\PSoC5/cyfitter_cfg.c **** {
 154:Generated_Source\PSoC5/cyfitter_cfg.c **** 	uint8 offset;
 155:Generated_Source\PSoC5/cyfitter_cfg.c **** 	uint8 value;
 156:Generated_Source\PSoC5/cyfitter_cfg.c **** } CYPACKED_ATTR cy_cfg_addrvalue_t;
 157:Generated_Source\PSoC5/cyfitter_cfg.c **** 
 158:Generated_Source\PSoC5/cyfitter_cfg.c **** #define cy_cfg_addr_table ((const uint32 CYFAR *)0x48000000u)
 159:Generated_Source\PSoC5/cyfitter_cfg.c **** #define cy_cfg_data_table ((const cy_cfg_addrvalue_t CYFAR *)0x48000084u)
 160:Generated_Source\PSoC5/cyfitter_cfg.c **** 
 161:Generated_Source\PSoC5/cyfitter_cfg.c **** /* UDB_0_3_1_CONFIG Address: CYDEV_UCFG_B0_P5_U1_BASE Size (bytes): 128 */
 162:Generated_Source\PSoC5/cyfitter_cfg.c **** #define BS_UDB_0_3_1_CONFIG_VAL ((const uint8 CYFAR *)0x48000804u)
 163:Generated_Source\PSoC5/cyfitter_cfg.c **** 
 164:Generated_Source\PSoC5/cyfitter_cfg.c **** /* IOPINS0_0 Address: CYREG_PRT0_DR Size (bytes): 10 */
 165:Generated_Source\PSoC5/cyfitter_cfg.c **** #define BS_IOPINS0_0_VAL ((const uint8 CYFAR *)0x48000884u)
 166:Generated_Source\PSoC5/cyfitter_cfg.c **** 
 167:Generated_Source\PSoC5/cyfitter_cfg.c **** /* IOPINS0_1 Address: CYREG_PRT1_DM0 Size (bytes): 8 */
 168:Generated_Source\PSoC5/cyfitter_cfg.c **** #define BS_IOPINS0_1_VAL ((const uint8 CYFAR *)0x48000890u)
 169:Generated_Source\PSoC5/cyfitter_cfg.c **** 
 170:Generated_Source\PSoC5/cyfitter_cfg.c **** /* IOPINS0_2 Address: CYREG_PRT2_DM0 Size (bytes): 8 */
 171:Generated_Source\PSoC5/cyfitter_cfg.c **** #define BS_IOPINS0_2_VAL ((const uint8 CYFAR *)0x48000898u)
 172:Generated_Source\PSoC5/cyfitter_cfg.c **** 
 173:Generated_Source\PSoC5/cyfitter_cfg.c **** /* IOPINS0_3 Address: CYREG_PRT3_DM0 Size (bytes): 8 */
 174:Generated_Source\PSoC5/cyfitter_cfg.c **** #define BS_IOPINS0_3_VAL ((const uint8 CYFAR *)0x480008A0u)
 175:Generated_Source\PSoC5/cyfitter_cfg.c **** 
 176:Generated_Source\PSoC5/cyfitter_cfg.c **** /* IOPINS0_5 Address: CYREG_PRT5_DM0 Size (bytes): 8 */
 177:Generated_Source\PSoC5/cyfitter_cfg.c **** #define BS_IOPINS0_5_VAL ((const uint8 CYFAR *)0x480008A8u)
 178:Generated_Source\PSoC5/cyfitter_cfg.c **** 
 179:Generated_Source\PSoC5/cyfitter_cfg.c **** /* CYDEV_CLKDIST_ACFG0_CFG0 Address: CYREG_CLKDIST_ACFG0_CFG0 Size (bytes): 4 */
 180:Generated_Source\PSoC5/cyfitter_cfg.c **** #define BS_CYDEV_CLKDIST_ACFG0_CFG0_VAL ((const uint8 CYFAR *)0x480008B0u)
 181:Generated_Source\PSoC5/cyfitter_cfg.c **** 
 182:Generated_Source\PSoC5/cyfitter_cfg.c **** 
 183:Generated_Source\PSoC5/cyfitter_cfg.c **** /*******************************************************************************
ARM GAS  C:\Users\diego\AppData\Local\Temp\ccYPM1GK.s 			page 5


 184:Generated_Source\PSoC5/cyfitter_cfg.c **** * Function Name: cfg_write_bytes32
 185:Generated_Source\PSoC5/cyfitter_cfg.c **** ********************************************************************************
 186:Generated_Source\PSoC5/cyfitter_cfg.c **** * Summary:
 187:Generated_Source\PSoC5/cyfitter_cfg.c **** *  This function is used for setting up the chip configuration areas that
 188:Generated_Source\PSoC5/cyfitter_cfg.c **** *  contain relatively sparse data.
 189:Generated_Source\PSoC5/cyfitter_cfg.c **** *
 190:Generated_Source\PSoC5/cyfitter_cfg.c **** * Parameters:
 191:Generated_Source\PSoC5/cyfitter_cfg.c **** *   void
 192:Generated_Source\PSoC5/cyfitter_cfg.c **** *
 193:Generated_Source\PSoC5/cyfitter_cfg.c **** * Return:
 194:Generated_Source\PSoC5/cyfitter_cfg.c **** *   void
 195:Generated_Source\PSoC5/cyfitter_cfg.c **** *
 196:Generated_Source\PSoC5/cyfitter_cfg.c **** *******************************************************************************/
 197:Generated_Source\PSoC5/cyfitter_cfg.c **** static void cfg_write_bytes32(const uint32 addr_table[], const cy_cfg_addrvalue_t data_table[]);
 198:Generated_Source\PSoC5/cyfitter_cfg.c **** static void cfg_write_bytes32(const uint32 addr_table[], const cy_cfg_addrvalue_t data_table[])
 199:Generated_Source\PSoC5/cyfitter_cfg.c **** {
  46              		.loc 1 199 0
  47              		.cfi_startproc
  48              		@ args = 0, pretend = 0, frame = 0
  49              		@ frame_needed = 0, uses_anonymous_args = 0
  50              		@ link register save eliminated.
  51              	.LVL1:
  52              		.loc 1 199 0
  53 0000 F0B4     		push	{r4, r5, r6, r7}
  54              		.cfi_def_cfa_offset 16
  55              		.cfi_offset 4, -16
  56              		.cfi_offset 5, -12
  57              		.cfi_offset 6, -8
  58              		.cfi_offset 7, -4
  59              	.LVL2:
 200:Generated_Source\PSoC5/cyfitter_cfg.c **** 	/* For 32-bit little-endian architectures */
 201:Generated_Source\PSoC5/cyfitter_cfg.c **** 	uint32 i, j = 0u;
  60              		.loc 1 201 0
  61 0002 0022     		movs	r2, #0
 202:Generated_Source\PSoC5/cyfitter_cfg.c **** 	for (i = 0u; i < CY_CFG_BASE_ADDR_COUNT; i++)
  62              		.loc 1 202 0
  63 0004 1746     		mov	r7, r2
  64 0006 11E0     		b	.L4
  65              	.LVL3:
  66              	.L7:
  67              	.LBB2:
 203:Generated_Source\PSoC5/cyfitter_cfg.c **** 	{
 204:Generated_Source\PSoC5/cyfitter_cfg.c **** 		uint32 baseAddr = addr_table[i];
  68              		.loc 1 204 0
  69 0008 50F82760 		ldr	r6, [r0, r7, lsl #2]
  70              	.LVL4:
 205:Generated_Source\PSoC5/cyfitter_cfg.c **** 		uint8 count = (uint8)baseAddr;
  71              		.loc 1 205 0
  72 000c F3B2     		uxtb	r3, r6
  73              	.LVL5:
 206:Generated_Source\PSoC5/cyfitter_cfg.c **** 		baseAddr &= 0xFFFFFF00u;
  74              		.loc 1 206 0
  75 000e 26F0FF06 		bic	r6, r6, #255
  76              	.LVL6:
 207:Generated_Source\PSoC5/cyfitter_cfg.c **** 		while (count != 0u)
  77              		.loc 1 207 0
  78 0012 08E0     		b	.L5
ARM GAS  C:\Users\diego\AppData\Local\Temp\ccYPM1GK.s 			page 6


  79              	.L6:
 208:Generated_Source\PSoC5/cyfitter_cfg.c **** 		{
 209:Generated_Source\PSoC5/cyfitter_cfg.c **** 			CY_SET_REG8((void *)(baseAddr + data_table[j].offset), data_table[j].value);
  80              		.loc 1 209 0
  81 0014 01EB4205 		add	r5, r1, r2, lsl #1
  82 0018 11F81240 		ldrb	r4, [r1, r2, lsl #1]	@ zero_extendqisi2
  83 001c 6D78     		ldrb	r5, [r5, #1]	@ zero_extendqisi2
  84 001e A555     		strb	r5, [r4, r6]
 210:Generated_Source\PSoC5/cyfitter_cfg.c **** 			j++;
  85              		.loc 1 210 0
  86 0020 0132     		adds	r2, r2, #1
  87              	.LVL7:
 211:Generated_Source\PSoC5/cyfitter_cfg.c **** 			count--;
  88              		.loc 1 211 0
  89 0022 013B     		subs	r3, r3, #1
  90              	.LVL8:
  91 0024 DBB2     		uxtb	r3, r3
  92              	.LVL9:
  93              	.L5:
 207:Generated_Source\PSoC5/cyfitter_cfg.c **** 		{
  94              		.loc 1 207 0
  95 0026 002B     		cmp	r3, #0
  96 0028 F4D1     		bne	.L6
  97              	.LBE2:
 202:Generated_Source\PSoC5/cyfitter_cfg.c **** 	{
  98              		.loc 1 202 0 discriminator 2
  99 002a 0137     		adds	r7, r7, #1
 100              	.LVL10:
 101              	.L4:
 202:Generated_Source\PSoC5/cyfitter_cfg.c **** 	{
 102              		.loc 1 202 0 is_stmt 0 discriminator 1
 103 002c 202F     		cmp	r7, #32
 104 002e EBD9     		bls	.L7
 212:Generated_Source\PSoC5/cyfitter_cfg.c **** 		}
 213:Generated_Source\PSoC5/cyfitter_cfg.c **** 	}
 214:Generated_Source\PSoC5/cyfitter_cfg.c **** }
 105              		.loc 1 214 0 is_stmt 1
 106 0030 F0BC     		pop	{r4, r5, r6, r7}
 107              		.cfi_restore 7
 108              		.cfi_restore 6
 109              		.cfi_restore 5
 110              		.cfi_restore 4
 111              		.cfi_def_cfa_offset 0
 112              	.LVL11:
 113 0032 7047     		bx	lr
 114              		.cfi_endproc
 115              	.LFE4:
 116              		.size	cfg_write_bytes32, .-cfg_write_bytes32
 117              		.section	.text.AnalogSetDefault,"ax",%progbits
 118              		.align	2
 119              		.thumb
 120              		.thumb_func
 121              		.type	AnalogSetDefault, %function
 122              	AnalogSetDefault:
 123              	.LFB6:
 215:Generated_Source\PSoC5/cyfitter_cfg.c **** 
 216:Generated_Source\PSoC5/cyfitter_cfg.c **** /*******************************************************************************
ARM GAS  C:\Users\diego\AppData\Local\Temp\ccYPM1GK.s 			page 7


 217:Generated_Source\PSoC5/cyfitter_cfg.c **** * Function Name: ClockSetup
 218:Generated_Source\PSoC5/cyfitter_cfg.c **** ********************************************************************************
 219:Generated_Source\PSoC5/cyfitter_cfg.c **** *
 220:Generated_Source\PSoC5/cyfitter_cfg.c **** * Summary:
 221:Generated_Source\PSoC5/cyfitter_cfg.c **** *  Performs the initialization of all of the clocks in the device based on the
 222:Generated_Source\PSoC5/cyfitter_cfg.c **** *  settings in the Clock tab of the DWR.  This includes enabling the requested
 223:Generated_Source\PSoC5/cyfitter_cfg.c **** *  clocks and setting the necessary dividers to produce the desired frequency. 
 224:Generated_Source\PSoC5/cyfitter_cfg.c **** *
 225:Generated_Source\PSoC5/cyfitter_cfg.c **** * Parameters:
 226:Generated_Source\PSoC5/cyfitter_cfg.c **** *  void
 227:Generated_Source\PSoC5/cyfitter_cfg.c **** *
 228:Generated_Source\PSoC5/cyfitter_cfg.c **** * Return:
 229:Generated_Source\PSoC5/cyfitter_cfg.c **** *  void
 230:Generated_Source\PSoC5/cyfitter_cfg.c **** *
 231:Generated_Source\PSoC5/cyfitter_cfg.c **** *******************************************************************************/
 232:Generated_Source\PSoC5/cyfitter_cfg.c **** static void ClockSetup(void);
 233:Generated_Source\PSoC5/cyfitter_cfg.c **** static void ClockSetup(void)
 234:Generated_Source\PSoC5/cyfitter_cfg.c **** {
 235:Generated_Source\PSoC5/cyfitter_cfg.c **** 	uint32 timeout;
 236:Generated_Source\PSoC5/cyfitter_cfg.c **** 	uint8 pllLock;
 237:Generated_Source\PSoC5/cyfitter_cfg.c **** 
 238:Generated_Source\PSoC5/cyfitter_cfg.c **** 
 239:Generated_Source\PSoC5/cyfitter_cfg.c **** 	/* Configure Digital Clocks based on settings from Clock DWR */
 240:Generated_Source\PSoC5/cyfitter_cfg.c **** 	CY_SET_XTND_REG16((void CYFAR *)(CYREG_CLKDIST_DCFG0_CFG0), 0x0000u);
 241:Generated_Source\PSoC5/cyfitter_cfg.c **** 	CY_SET_XTND_REG8((void CYFAR *)(CYREG_CLKDIST_DCFG0_CFG0 + 0x2u), 0x50u);
 242:Generated_Source\PSoC5/cyfitter_cfg.c **** 	CY_SET_XTND_REG16((void CYFAR *)(CYREG_CLKDIST_DCFG1_CFG0), 0x0017u);
 243:Generated_Source\PSoC5/cyfitter_cfg.c **** 	CY_SET_XTND_REG8((void CYFAR *)(CYREG_CLKDIST_DCFG1_CFG0 + 0x2u), 0x18u);
 244:Generated_Source\PSoC5/cyfitter_cfg.c **** 	CY_SET_XTND_REG16((void CYFAR *)(CYREG_CLKDIST_DCFG2_CFG0), 0x0019u);
 245:Generated_Source\PSoC5/cyfitter_cfg.c **** 	CY_SET_XTND_REG8((void CYFAR *)(CYREG_CLKDIST_DCFG2_CFG0 + 0x2u), 0x18u);
 246:Generated_Source\PSoC5/cyfitter_cfg.c **** 	CY_SET_XTND_REG16((void CYFAR *)(CYREG_CLKDIST_DCFG3_CFG0), 0x00EFu);
 247:Generated_Source\PSoC5/cyfitter_cfg.c **** 	CY_SET_XTND_REG8((void CYFAR *)(CYREG_CLKDIST_DCFG3_CFG0 + 0x2u), 0x18u);
 248:Generated_Source\PSoC5/cyfitter_cfg.c **** 	CY_SET_XTND_REG16((void CYFAR *)(CYREG_CLKDIST_DCFG4_CFG0), 0x00EFu);
 249:Generated_Source\PSoC5/cyfitter_cfg.c **** 	CY_SET_XTND_REG8((void CYFAR *)(CYREG_CLKDIST_DCFG4_CFG0 + 0x2u), 0x18u);
 250:Generated_Source\PSoC5/cyfitter_cfg.c **** 
 251:Generated_Source\PSoC5/cyfitter_cfg.c **** 	/* Configure Analog Clocks based on settings from Clock DWR */
 252:Generated_Source\PSoC5/cyfitter_cfg.c **** 	CYCONFIGCPY((void CYFAR *)(CYREG_CLKDIST_ACFG0_CFG0), (const void CYFAR *)(BS_CYDEV_CLKDIST_ACFG0_
 253:Generated_Source\PSoC5/cyfitter_cfg.c **** 
 254:Generated_Source\PSoC5/cyfitter_cfg.c **** 	/* Configure ILO based on settings from Clock DWR */
 255:Generated_Source\PSoC5/cyfitter_cfg.c **** 	CY_SET_XTND_REG8((void CYFAR *)(CYREG_SLOWCLK_ILO_CR0), 0x02u);
 256:Generated_Source\PSoC5/cyfitter_cfg.c **** 	CY_SET_XTND_REG8((void CYFAR *)(CYREG_CLKDIST_CR), 0x08u);
 257:Generated_Source\PSoC5/cyfitter_cfg.c **** 
 258:Generated_Source\PSoC5/cyfitter_cfg.c **** 	/* Configure IMO based on settings from Clock DWR */
 259:Generated_Source\PSoC5/cyfitter_cfg.c **** 	CY_SET_XTND_REG8((void CYFAR *)(CYREG_FASTCLK_IMO_CR), 0x03u);
 260:Generated_Source\PSoC5/cyfitter_cfg.c **** 	CY_SET_XTND_REG8((void CYFAR *)(CYREG_IMO_TR1), (CY_GET_XTND_REG8((void CYFAR *)CYREG_FLSHID_CUST_
 261:Generated_Source\PSoC5/cyfitter_cfg.c **** 
 262:Generated_Source\PSoC5/cyfitter_cfg.c **** 	/* Configure PLL based on settings from Clock DWR */
 263:Generated_Source\PSoC5/cyfitter_cfg.c **** 	CY_SET_XTND_REG16((void CYFAR *)(CYREG_FASTCLK_PLL_P), 0x0008u);
 264:Generated_Source\PSoC5/cyfitter_cfg.c **** 	CY_SET_XTND_REG16((void CYFAR *)(CYREG_FASTCLK_PLL_CFG0), 0x1251u);
 265:Generated_Source\PSoC5/cyfitter_cfg.c **** 	/* Wait up to 250us for the PLL to lock */
 266:Generated_Source\PSoC5/cyfitter_cfg.c **** 	pllLock = 0u;
 267:Generated_Source\PSoC5/cyfitter_cfg.c **** 	for (timeout = 250u / 10u; (timeout > 0u) && (pllLock != 0x03u); timeout--)
 268:Generated_Source\PSoC5/cyfitter_cfg.c **** 	{ 
 269:Generated_Source\PSoC5/cyfitter_cfg.c **** 		pllLock = 0x03u & ((uint8)((uint8)pllLock << 1) | ((CY_GET_XTND_REG8((void CYFAR *)CYREG_FASTCLK_
 270:Generated_Source\PSoC5/cyfitter_cfg.c **** 		CyDelayCycles(10u * 48u); /* Delay 10us based on 48MHz clock */
 271:Generated_Source\PSoC5/cyfitter_cfg.c **** 	}
 272:Generated_Source\PSoC5/cyfitter_cfg.c **** 	/* If we ran out of time the PLL didn't lock so go to the error function */
 273:Generated_Source\PSoC5/cyfitter_cfg.c **** 	if (timeout == 0u)
ARM GAS  C:\Users\diego\AppData\Local\Temp\ccYPM1GK.s 			page 8


 274:Generated_Source\PSoC5/cyfitter_cfg.c **** 	{
 275:Generated_Source\PSoC5/cyfitter_cfg.c **** 		CyClockStartupError(CYCLOCKSTART_PLL_ERROR);
 276:Generated_Source\PSoC5/cyfitter_cfg.c **** 	}
 277:Generated_Source\PSoC5/cyfitter_cfg.c **** 
 278:Generated_Source\PSoC5/cyfitter_cfg.c **** 	/* Configure Bus/Master Clock based on settings from Clock DWR */
 279:Generated_Source\PSoC5/cyfitter_cfg.c **** 	CY_SET_XTND_REG16((void CYFAR *)(CYREG_CLKDIST_MSTR0), 0x0100u);
 280:Generated_Source\PSoC5/cyfitter_cfg.c **** 	CY_SET_XTND_REG8((void CYFAR *)(CYREG_CLKDIST_MSTR0), 0x07u);
 281:Generated_Source\PSoC5/cyfitter_cfg.c **** 	CY_SET_XTND_REG8((void CYFAR *)(CYREG_CLKDIST_BCFG0), 0x00u);
 282:Generated_Source\PSoC5/cyfitter_cfg.c **** 	CY_SET_XTND_REG8((void CYFAR *)(CYREG_CLKDIST_BCFG2), 0x48u);
 283:Generated_Source\PSoC5/cyfitter_cfg.c **** 	CY_SET_XTND_REG8((void CYFAR *)(CYREG_CLKDIST_MSTR0), 0x00u);
 284:Generated_Source\PSoC5/cyfitter_cfg.c **** 	CY_SET_XTND_REG8((void CYFAR *)(CYREG_CLKDIST_LD), 0x02u);
 285:Generated_Source\PSoC5/cyfitter_cfg.c **** 	CY_SET_XTND_REG8((void CYFAR *)(CYREG_CLKDIST_DLY1), 0x04u);
 286:Generated_Source\PSoC5/cyfitter_cfg.c **** 
 287:Generated_Source\PSoC5/cyfitter_cfg.c **** 	CY_SET_XTND_REG8((void CYFAR *)(CYREG_PM_ACT_CFG2), ((CY_GET_XTND_REG8((void CYFAR *)CYREG_PM_ACT_
 288:Generated_Source\PSoC5/cyfitter_cfg.c **** 	CY_SET_XTND_REG8((void CYFAR *)(CYREG_PM_ACT_CFG1), ((CY_GET_XTND_REG8((void CYFAR *)CYREG_PM_ACT_
 289:Generated_Source\PSoC5/cyfitter_cfg.c **** 	CY_SET_XTND_REG8((void CYFAR *)(CYREG_PM_ACT_CFG0), ((CY_GET_XTND_REG8((void CYFAR *)CYREG_PM_ACT_
 290:Generated_Source\PSoC5/cyfitter_cfg.c **** }
 291:Generated_Source\PSoC5/cyfitter_cfg.c **** 
 292:Generated_Source\PSoC5/cyfitter_cfg.c **** 
 293:Generated_Source\PSoC5/cyfitter_cfg.c **** /* Analog API Functions */
 294:Generated_Source\PSoC5/cyfitter_cfg.c **** 
 295:Generated_Source\PSoC5/cyfitter_cfg.c **** 
 296:Generated_Source\PSoC5/cyfitter_cfg.c **** /*******************************************************************************
 297:Generated_Source\PSoC5/cyfitter_cfg.c **** * Function Name: AnalogSetDefault
 298:Generated_Source\PSoC5/cyfitter_cfg.c **** ********************************************************************************
 299:Generated_Source\PSoC5/cyfitter_cfg.c **** *
 300:Generated_Source\PSoC5/cyfitter_cfg.c **** * Summary:
 301:Generated_Source\PSoC5/cyfitter_cfg.c **** *  Sets up the analog portions of the chip to default values based on chip
 302:Generated_Source\PSoC5/cyfitter_cfg.c **** *  configuration options from the project.
 303:Generated_Source\PSoC5/cyfitter_cfg.c **** *
 304:Generated_Source\PSoC5/cyfitter_cfg.c **** * Parameters:
 305:Generated_Source\PSoC5/cyfitter_cfg.c **** *  void
 306:Generated_Source\PSoC5/cyfitter_cfg.c **** *
 307:Generated_Source\PSoC5/cyfitter_cfg.c **** * Return:
 308:Generated_Source\PSoC5/cyfitter_cfg.c **** *  void
 309:Generated_Source\PSoC5/cyfitter_cfg.c **** *
 310:Generated_Source\PSoC5/cyfitter_cfg.c **** *******************************************************************************/
 311:Generated_Source\PSoC5/cyfitter_cfg.c **** static void AnalogSetDefault(void);
 312:Generated_Source\PSoC5/cyfitter_cfg.c **** static void AnalogSetDefault(void)
 313:Generated_Source\PSoC5/cyfitter_cfg.c **** {
 124              		.loc 1 313 0
 125              		.cfi_startproc
 126              		@ args = 0, pretend = 0, frame = 0
 127              		@ frame_needed = 0, uses_anonymous_args = 0
 128              		@ link register save eliminated.
 314:Generated_Source\PSoC5/cyfitter_cfg.c **** 	uint8 bg_xover_inl_trim = CY_GET_XTND_REG8((void CYFAR *)(CYREG_FLSHID_MFG_CFG_BG_XOVER_INL_TRIM +
 129              		.loc 1 314 0
 130 0000 0A4B     		ldr	r3, .L10
 131 0002 1B78     		ldrb	r3, [r3]	@ zero_extendqisi2
 132 0004 DBB2     		uxtb	r3, r3
 133              	.LVL12:
 315:Generated_Source\PSoC5/cyfitter_cfg.c **** 	CY_SET_XTND_REG8((void CYFAR *)(CYREG_BG_DFT0), (bg_xover_inl_trim & 0x07u));
 134              		.loc 1 315 0
 135 0006 03F00701 		and	r1, r3, #7
 136 000a 094A     		ldr	r2, .L10+4
 137 000c 1170     		strb	r1, [r2]
 316:Generated_Source\PSoC5/cyfitter_cfg.c **** 	CY_SET_XTND_REG8((void CYFAR *)(CYREG_BG_DFT1), ((bg_xover_inl_trim >> 4) & 0x0Fu));
ARM GAS  C:\Users\diego\AppData\Local\Temp\ccYPM1GK.s 			page 9


 138              		.loc 1 316 0
 139 000e 1B09     		lsrs	r3, r3, #4
 140              	.LVL13:
 141 0010 0132     		adds	r2, r2, #1
 142 0012 1370     		strb	r3, [r2]
 317:Generated_Source\PSoC5/cyfitter_cfg.c **** 	CY_SET_XTND_REG8((void CYFAR *)CYREG_PRT2_AG, 0x04u);
 143              		.loc 1 317 0
 144 0014 0423     		movs	r3, #4
 145 0016 A2F24272 		subw	r2, r2, #1858
 146 001a 1370     		strb	r3, [r2]
 318:Generated_Source\PSoC5/cyfitter_cfg.c **** 	CY_SET_XTND_REG8((void CYFAR *)CYREG_DSM0_SW0, 0x04u);
 147              		.loc 1 318 0
 148 001c 02F6D312 		addw	r2, r2, #2515
 149 0020 1370     		strb	r3, [r2]
 319:Generated_Source\PSoC5/cyfitter_cfg.c **** 	CY_SET_XTND_REG8((void CYFAR *)CYREG_PUMP_CR0, 0x44u);
 150              		.loc 1 319 0
 151 0022 4422     		movs	r2, #68
 152 0024 034B     		ldr	r3, .L10+8
 153 0026 1A70     		strb	r2, [r3]
 154 0028 7047     		bx	lr
 155              	.L11:
 156 002a 00BF     		.align	2
 157              	.L10:
 158 002c CF010049 		.word	1224737231
 159 0030 6E580040 		.word	1073764462
 160 0034 76580040 		.word	1073764470
 161              		.cfi_endproc
 162              	.LFE6:
 163              		.size	AnalogSetDefault, .-AnalogSetDefault
 164              		.section	.text.CYMEMZERO,"ax",%progbits
 165              		.align	2
 166              		.thumb
 167              		.thumb_func
 168              		.type	CYMEMZERO, %function
 169              	CYMEMZERO:
 170              	.LFB0:
  78:Generated_Source\PSoC5/cyfitter_cfg.c **** 	(void)memset(s, 0, n);
 171              		.loc 1 78 0
 172              		.cfi_startproc
 173              		@ args = 0, pretend = 0, frame = 0
 174              		@ frame_needed = 0, uses_anonymous_args = 0
 175              	.LVL14:
 176 0000 08B5     		push	{r3, lr}
 177              		.cfi_def_cfa_offset 8
 178              		.cfi_offset 3, -8
 179              		.cfi_offset 14, -4
  79:Generated_Source\PSoC5/cyfitter_cfg.c **** }
 180              		.loc 1 79 0
 181 0002 0A46     		mov	r2, r1
 182 0004 0021     		movs	r1, #0
 183              	.LVL15:
 184 0006 FFF7FEFF 		bl	memset
 185              	.LVL16:
 186 000a 08BD     		pop	{r3, pc}
 187              		.cfi_endproc
 188              	.LFE0:
 189              		.size	CYMEMZERO, .-CYMEMZERO
ARM GAS  C:\Users\diego\AppData\Local\Temp\ccYPM1GK.s 			page 10


 190              		.section	.text.CYCONFIGCPY,"ax",%progbits
 191              		.align	2
 192              		.thumb
 193              		.thumb_func
 194              		.type	CYCONFIGCPY, %function
 195              	CYCONFIGCPY:
 196              	.LFB1:
  85:Generated_Source\PSoC5/cyfitter_cfg.c **** 	(void)memcpy(dest, src, n);
 197              		.loc 1 85 0
 198              		.cfi_startproc
 199              		@ args = 0, pretend = 0, frame = 0
 200              		@ frame_needed = 0, uses_anonymous_args = 0
 201              	.LVL17:
 202 0000 08B5     		push	{r3, lr}
 203              		.cfi_def_cfa_offset 8
 204              		.cfi_offset 3, -8
 205              		.cfi_offset 14, -4
  86:Generated_Source\PSoC5/cyfitter_cfg.c **** }
 206              		.loc 1 86 0
 207 0002 FFF7FEFF 		bl	memcpy
 208              	.LVL18:
 209 0006 08BD     		pop	{r3, pc}
 210              		.cfi_endproc
 211              	.LFE1:
 212              		.size	CYCONFIGCPY, .-CYCONFIGCPY
 213              		.section	.text.ClockSetup,"ax",%progbits
 214              		.align	2
 215              		.thumb
 216              		.thumb_func
 217              		.type	ClockSetup, %function
 218              	ClockSetup:
 219              	.LFB5:
 234:Generated_Source\PSoC5/cyfitter_cfg.c **** 	uint32 timeout;
 220              		.loc 1 234 0
 221              		.cfi_startproc
 222              		@ args = 0, pretend = 0, frame = 0
 223              		@ frame_needed = 0, uses_anonymous_args = 0
 224 0000 38B5     		push	{r3, r4, r5, lr}
 225              		.cfi_def_cfa_offset 16
 226              		.cfi_offset 3, -16
 227              		.cfi_offset 4, -12
 228              		.cfi_offset 5, -8
 229              		.cfi_offset 14, -4
 240:Generated_Source\PSoC5/cyfitter_cfg.c **** 	CY_SET_XTND_REG8((void CYFAR *)(CYREG_CLKDIST_DCFG0_CFG0 + 0x2u), 0x50u);
 230              		.loc 1 240 0
 231 0002 0024     		movs	r4, #0
 232 0004 354B     		ldr	r3, .L22
 233 0006 1C80     		strh	r4, [r3]	@ movhi
 241:Generated_Source\PSoC5/cyfitter_cfg.c **** 	CY_SET_XTND_REG16((void CYFAR *)(CYREG_CLKDIST_DCFG1_CFG0), 0x0017u);
 234              		.loc 1 241 0
 235 0008 5022     		movs	r2, #80
 236 000a 0233     		adds	r3, r3, #2
 237 000c 1A70     		strb	r2, [r3]
 242:Generated_Source\PSoC5/cyfitter_cfg.c **** 	CY_SET_XTND_REG8((void CYFAR *)(CYREG_CLKDIST_DCFG1_CFG0 + 0x2u), 0x18u);
 238              		.loc 1 242 0
 239 000e 1722     		movs	r2, #23
 240 0010 0233     		adds	r3, r3, #2
ARM GAS  C:\Users\diego\AppData\Local\Temp\ccYPM1GK.s 			page 11


 241 0012 1A80     		strh	r2, [r3]	@ movhi
 243:Generated_Source\PSoC5/cyfitter_cfg.c **** 	CY_SET_XTND_REG16((void CYFAR *)(CYREG_CLKDIST_DCFG2_CFG0), 0x0019u);
 242              		.loc 1 243 0
 243 0014 1823     		movs	r3, #24
 244 0016 324A     		ldr	r2, .L22+4
 245 0018 1370     		strb	r3, [r2]
 244:Generated_Source\PSoC5/cyfitter_cfg.c **** 	CY_SET_XTND_REG8((void CYFAR *)(CYREG_CLKDIST_DCFG2_CFG0 + 0x2u), 0x18u);
 246              		.loc 1 244 0
 247 001a 1925     		movs	r5, #25
 248 001c 0232     		adds	r2, r2, #2
 249 001e 1580     		strh	r5, [r2]	@ movhi
 245:Generated_Source\PSoC5/cyfitter_cfg.c **** 	CY_SET_XTND_REG16((void CYFAR *)(CYREG_CLKDIST_DCFG3_CFG0), 0x00EFu);
 250              		.loc 1 245 0
 251 0020 0232     		adds	r2, r2, #2
 252 0022 1370     		strb	r3, [r2]
 246:Generated_Source\PSoC5/cyfitter_cfg.c **** 	CY_SET_XTND_REG8((void CYFAR *)(CYREG_CLKDIST_DCFG3_CFG0 + 0x2u), 0x18u);
 253              		.loc 1 246 0
 254 0024 EF22     		movs	r2, #239
 255 0026 2F49     		ldr	r1, .L22+8
 256 0028 0A80     		strh	r2, [r1]	@ movhi
 247:Generated_Source\PSoC5/cyfitter_cfg.c **** 	CY_SET_XTND_REG16((void CYFAR *)(CYREG_CLKDIST_DCFG4_CFG0), 0x00EFu);
 257              		.loc 1 247 0
 258 002a 0231     		adds	r1, r1, #2
 259 002c 0B70     		strb	r3, [r1]
 248:Generated_Source\PSoC5/cyfitter_cfg.c **** 	CY_SET_XTND_REG8((void CYFAR *)(CYREG_CLKDIST_DCFG4_CFG0 + 0x2u), 0x18u);
 260              		.loc 1 248 0
 261 002e 0231     		adds	r1, r1, #2
 262 0030 0A80     		strh	r2, [r1]	@ movhi
 249:Generated_Source\PSoC5/cyfitter_cfg.c **** 
 263              		.loc 1 249 0
 264 0032 2D4A     		ldr	r2, .L22+12
 265 0034 1370     		strb	r3, [r2]
 252:Generated_Source\PSoC5/cyfitter_cfg.c **** 
 266              		.loc 1 252 0
 267 0036 0422     		movs	r2, #4
 268 0038 2C49     		ldr	r1, .L22+16
 269 003a 2D48     		ldr	r0, .L22+20
 270 003c FFF7FEFF 		bl	CYCONFIGCPY
 271              	.LVL19:
 255:Generated_Source\PSoC5/cyfitter_cfg.c **** 	CY_SET_XTND_REG8((void CYFAR *)(CYREG_CLKDIST_CR), 0x08u);
 272              		.loc 1 255 0
 273 0040 0222     		movs	r2, #2
 274 0042 2C4B     		ldr	r3, .L22+24
 275 0044 1A70     		strb	r2, [r3]
 256:Generated_Source\PSoC5/cyfitter_cfg.c **** 
 276              		.loc 1 256 0
 277 0046 0822     		movs	r2, #8
 278 0048 4FF04023 		mov	r3, #1073758208
 279 004c 1A70     		strb	r2, [r3]
 259:Generated_Source\PSoC5/cyfitter_cfg.c **** 	CY_SET_XTND_REG8((void CYFAR *)(CYREG_IMO_TR1), (CY_GET_XTND_REG8((void CYFAR *)CYREG_FLSHID_CUST_
 280              		.loc 1 259 0
 281 004e 0321     		movs	r1, #3
 282 0050 03F50073 		add	r3, r3, #512
 283 0054 1970     		strb	r1, [r3]
 260:Generated_Source\PSoC5/cyfitter_cfg.c **** 
 284              		.loc 1 260 0
 285 0056 284B     		ldr	r3, .L22+28
ARM GAS  C:\Users\diego\AppData\Local\Temp\ccYPM1GK.s 			page 12


 286 0058 1B78     		ldrb	r3, [r3]	@ zero_extendqisi2
 287 005a DBB2     		uxtb	r3, r3
 288 005c 2749     		ldr	r1, .L22+32
 289 005e 0B70     		strb	r3, [r1]
 263:Generated_Source\PSoC5/cyfitter_cfg.c **** 	CY_SET_XTND_REG16((void CYFAR *)(CYREG_FASTCLK_PLL_CFG0), 0x1251u);
 290              		.loc 1 263 0
 291 0060 274B     		ldr	r3, .L22+36
 292 0062 1A80     		strh	r2, [r3]	@ movhi
 264:Generated_Source\PSoC5/cyfitter_cfg.c **** 	/* Wait up to 250us for the PLL to lock */
 293              		.loc 1 264 0
 294 0064 41F25122 		movw	r2, #4689
 295 0068 023B     		subs	r3, r3, #2
 296 006a 1A80     		strh	r2, [r3]	@ movhi
 297              	.LVL20:
 267:Generated_Source\PSoC5/cyfitter_cfg.c **** 	{ 
 298              		.loc 1 267 0
 299 006c 0CE0     		b	.L17
 300              	.LVL21:
 301              	.L19:
 269:Generated_Source\PSoC5/cyfitter_cfg.c **** 		CyDelayCycles(10u * 48u); /* Delay 10us based on 48MHz clock */
 302              		.loc 1 269 0 discriminator 4
 303 006e 254B     		ldr	r3, .L22+40
 304 0070 1B78     		ldrb	r3, [r3]	@ zero_extendqisi2
 305 0072 03F00103 		and	r3, r3, #1
 306 0076 43EA4404 		orr	r4, r3, r4, lsl #1
 307              	.LVL22:
 308 007a 04F00304 		and	r4, r4, #3
 309              	.LVL23:
 270:Generated_Source\PSoC5/cyfitter_cfg.c **** 	}
 310              		.loc 1 270 0 discriminator 4
 311 007e 4FF4F070 		mov	r0, #480
 312 0082 FFF7FEFF 		bl	CyDelayCycles
 313              	.LVL24:
 267:Generated_Source\PSoC5/cyfitter_cfg.c **** 	{ 
 314              		.loc 1 267 0 discriminator 4
 315 0086 013D     		subs	r5, r5, #1
 316              	.LVL25:
 317              	.L17:
 267:Generated_Source\PSoC5/cyfitter_cfg.c **** 	{ 
 318              		.loc 1 267 0 is_stmt 0 discriminator 1
 319 0088 0DB1     		cbz	r5, .L18
 267:Generated_Source\PSoC5/cyfitter_cfg.c **** 	{ 
 320              		.loc 1 267 0 discriminator 3
 321 008a 032C     		cmp	r4, #3
 322 008c EFD1     		bne	.L19
 323              	.L18:
 273:Generated_Source\PSoC5/cyfitter_cfg.c **** 	{
 324              		.loc 1 273 0 is_stmt 1
 325 008e 15B9     		cbnz	r5, .L20
 275:Generated_Source\PSoC5/cyfitter_cfg.c **** 	}
 326              		.loc 1 275 0
 327 0090 0320     		movs	r0, #3
 328 0092 FFF7FEFF 		bl	CyClockStartupError
 329              	.LVL26:
 330              	.L20:
 279:Generated_Source\PSoC5/cyfitter_cfg.c **** 	CY_SET_XTND_REG8((void CYFAR *)(CYREG_CLKDIST_MSTR0), 0x07u);
 331              		.loc 1 279 0
ARM GAS  C:\Users\diego\AppData\Local\Temp\ccYPM1GK.s 			page 13


 332 0096 1C4B     		ldr	r3, .L22+44
 333 0098 4FF48072 		mov	r2, #256
 334 009c 1A80     		strh	r2, [r3]	@ movhi
 280:Generated_Source\PSoC5/cyfitter_cfg.c **** 	CY_SET_XTND_REG8((void CYFAR *)(CYREG_CLKDIST_BCFG0), 0x00u);
 335              		.loc 1 280 0
 336 009e 0722     		movs	r2, #7
 337 00a0 1A70     		strb	r2, [r3]
 281:Generated_Source\PSoC5/cyfitter_cfg.c **** 	CY_SET_XTND_REG8((void CYFAR *)(CYREG_CLKDIST_BCFG2), 0x48u);
 338              		.loc 1 281 0
 339 00a2 0022     		movs	r2, #0
 340 00a4 1949     		ldr	r1, .L22+48
 341 00a6 0A70     		strb	r2, [r1]
 282:Generated_Source\PSoC5/cyfitter_cfg.c **** 	CY_SET_XTND_REG8((void CYFAR *)(CYREG_CLKDIST_MSTR0), 0x00u);
 342              		.loc 1 282 0
 343 00a8 4820     		movs	r0, #72
 344 00aa 0231     		adds	r1, r1, #2
 345 00ac 0870     		strb	r0, [r1]
 283:Generated_Source\PSoC5/cyfitter_cfg.c **** 	CY_SET_XTND_REG8((void CYFAR *)(CYREG_CLKDIST_LD), 0x02u);
 346              		.loc 1 283 0
 347 00ae 1A70     		strb	r2, [r3]
 284:Generated_Source\PSoC5/cyfitter_cfg.c **** 	CY_SET_XTND_REG8((void CYFAR *)(CYREG_CLKDIST_DLY1), 0x04u);
 348              		.loc 1 284 0
 349 00b0 0222     		movs	r2, #2
 350 00b2 033B     		subs	r3, r3, #3
 351 00b4 1A70     		strb	r2, [r3]
 285:Generated_Source\PSoC5/cyfitter_cfg.c **** 
 352              		.loc 1 285 0
 353 00b6 0422     		movs	r2, #4
 354 00b8 0A33     		adds	r3, r3, #10
 355 00ba 1A70     		strb	r2, [r3]
 287:Generated_Source\PSoC5/cyfitter_cfg.c **** 	CY_SET_XTND_REG8((void CYFAR *)(CYREG_PM_ACT_CFG1), ((CY_GET_XTND_REG8((void CYFAR *)CYREG_PM_ACT_
 356              		.loc 1 287 0
 357 00bc 144A     		ldr	r2, .L22+52
 358 00be 1378     		ldrb	r3, [r2]	@ zero_extendqisi2
 359 00c0 43F01F03 		orr	r3, r3, #31
 360 00c4 1370     		strb	r3, [r2]
 288:Generated_Source\PSoC5/cyfitter_cfg.c **** 	CY_SET_XTND_REG8((void CYFAR *)(CYREG_PM_ACT_CFG0), ((CY_GET_XTND_REG8((void CYFAR *)CYREG_PM_ACT_
 361              		.loc 1 288 0
 362 00c6 013A     		subs	r2, r2, #1
 363 00c8 1378     		ldrb	r3, [r2]	@ zero_extendqisi2
 364 00ca 43F00103 		orr	r3, r3, #1
 365 00ce 1370     		strb	r3, [r2]
 289:Generated_Source\PSoC5/cyfitter_cfg.c **** }
 366              		.loc 1 289 0
 367 00d0 013A     		subs	r2, r2, #1
 368 00d2 1378     		ldrb	r3, [r2]	@ zero_extendqisi2
 369 00d4 43F08003 		orr	r3, r3, #128
 370 00d8 1370     		strb	r3, [r2]
 371 00da 38BD     		pop	{r3, r4, r5, pc}
 372              	.LVL27:
 373              	.L23:
 374              		.align	2
 375              	.L22:
 376 00dc 80400040 		.word	1073758336
 377 00e0 86400040 		.word	1073758342
 378 00e4 8C400040 		.word	1073758348
 379 00e8 92400040 		.word	1073758354
ARM GAS  C:\Users\diego\AppData\Local\Temp\ccYPM1GK.s 			page 14


 380 00ec B0080048 		.word	1207961776
 381 00f0 00410040 		.word	1073758464
 382 00f4 00430040 		.word	1073758976
 383 00f8 08010049 		.word	1224737032
 384 00fc A1460040 		.word	1073759905
 385 0100 22420040 		.word	1073758754
 386 0104 25420040 		.word	1073758757
 387 0108 04400040 		.word	1073758212
 388 010c 06400040 		.word	1073758214
 389 0110 A2430040 		.word	1073759138
 390              		.cfi_endproc
 391              	.LFE5:
 392              		.size	ClockSetup, .-ClockSetup
 393              		.section	.text.SetAnalogRoutingPumps,"ax",%progbits
 394              		.align	2
 395              		.global	SetAnalogRoutingPumps
 396              		.thumb
 397              		.thumb_func
 398              		.type	SetAnalogRoutingPumps, %function
 399              	SetAnalogRoutingPumps:
 400              	.LFB7:
 320:Generated_Source\PSoC5/cyfitter_cfg.c **** }
 321:Generated_Source\PSoC5/cyfitter_cfg.c **** 
 322:Generated_Source\PSoC5/cyfitter_cfg.c **** 
 323:Generated_Source\PSoC5/cyfitter_cfg.c **** /*******************************************************************************
 324:Generated_Source\PSoC5/cyfitter_cfg.c **** * Function Name: SetAnalogRoutingPumps
 325:Generated_Source\PSoC5/cyfitter_cfg.c **** ********************************************************************************
 326:Generated_Source\PSoC5/cyfitter_cfg.c **** *
 327:Generated_Source\PSoC5/cyfitter_cfg.c **** * Summary:
 328:Generated_Source\PSoC5/cyfitter_cfg.c **** * Enables or disables the analog pumps feeding analog routing switches.
 329:Generated_Source\PSoC5/cyfitter_cfg.c **** * Intended to be called at startup, based on the Vdda system configuration;
 330:Generated_Source\PSoC5/cyfitter_cfg.c **** * may be called during operation when the user informs us that the Vdda voltage
 331:Generated_Source\PSoC5/cyfitter_cfg.c **** * crossed the pump threshold.
 332:Generated_Source\PSoC5/cyfitter_cfg.c **** *
 333:Generated_Source\PSoC5/cyfitter_cfg.c **** * Parameters:
 334:Generated_Source\PSoC5/cyfitter_cfg.c **** *  enabled - 1 to enable the pumps, 0 to disable the pumps
 335:Generated_Source\PSoC5/cyfitter_cfg.c **** *
 336:Generated_Source\PSoC5/cyfitter_cfg.c **** * Return:
 337:Generated_Source\PSoC5/cyfitter_cfg.c **** *  void
 338:Generated_Source\PSoC5/cyfitter_cfg.c **** *
 339:Generated_Source\PSoC5/cyfitter_cfg.c **** *******************************************************************************/
 340:Generated_Source\PSoC5/cyfitter_cfg.c **** void SetAnalogRoutingPumps(uint8 enabled)
 341:Generated_Source\PSoC5/cyfitter_cfg.c **** {
 401              		.loc 1 341 0
 402              		.cfi_startproc
 403              		@ args = 0, pretend = 0, frame = 0
 404              		@ frame_needed = 0, uses_anonymous_args = 0
 405              		@ link register save eliminated.
 406              	.LVL28:
 342:Generated_Source\PSoC5/cyfitter_cfg.c **** 	uint8 regValue = CY_GET_XTND_REG8((void CYFAR *)CYREG_PUMP_CR0);
 407              		.loc 1 342 0
 408 0000 054B     		ldr	r3, .L27
 409 0002 1B78     		ldrb	r3, [r3]	@ zero_extendqisi2
 410 0004 DBB2     		uxtb	r3, r3
 411              	.LVL29:
 343:Generated_Source\PSoC5/cyfitter_cfg.c **** 	if (enabled != 0u)
 412              		.loc 1 343 0
ARM GAS  C:\Users\diego\AppData\Local\Temp\ccYPM1GK.s 			page 15


 413 0006 10B1     		cbz	r0, .L25
 344:Generated_Source\PSoC5/cyfitter_cfg.c **** 	{
 345:Generated_Source\PSoC5/cyfitter_cfg.c **** 		regValue |= 0x22u;
 414              		.loc 1 345 0
 415 0008 43F02203 		orr	r3, r3, #34
 416              	.LVL30:
 417 000c 01E0     		b	.L26
 418              	.L25:
 346:Generated_Source\PSoC5/cyfitter_cfg.c **** 	}
 347:Generated_Source\PSoC5/cyfitter_cfg.c **** 	else
 348:Generated_Source\PSoC5/cyfitter_cfg.c **** 	{
 349:Generated_Source\PSoC5/cyfitter_cfg.c **** 		regValue &= (uint8)~0x22u;
 419              		.loc 1 349 0
 420 000e 03F0DD03 		and	r3, r3, #221
 421              	.LVL31:
 422              	.L26:
 350:Generated_Source\PSoC5/cyfitter_cfg.c **** 	}
 351:Generated_Source\PSoC5/cyfitter_cfg.c **** 	CY_SET_XTND_REG8((void CYFAR *)CYREG_PUMP_CR0, regValue);
 423              		.loc 1 351 0
 424 0012 014A     		ldr	r2, .L27
 425 0014 1370     		strb	r3, [r2]
 426 0016 7047     		bx	lr
 427              	.L28:
 428              		.align	2
 429              	.L27:
 430 0018 76580040 		.word	1073764470
 431              		.cfi_endproc
 432              	.LFE7:
 433              		.size	SetAnalogRoutingPumps, .-SetAnalogRoutingPumps
 434              		.section	.text.ADC_DelSig_1_AMux_Set,"ax",%progbits
 435              		.align	2
 436              		.global	ADC_DelSig_1_AMux_Set
 437              		.thumb
 438              		.thumb_func
 439              		.type	ADC_DelSig_1_AMux_Set, %function
 440              	ADC_DelSig_1_AMux_Set:
 441              	.LFB8:
 352:Generated_Source\PSoC5/cyfitter_cfg.c **** }
 353:Generated_Source\PSoC5/cyfitter_cfg.c **** 
 354:Generated_Source\PSoC5/cyfitter_cfg.c **** 
 355:Generated_Source\PSoC5/cyfitter_cfg.c **** #define CY_AMUX_UNUSED CYREG_BOOST_SR
 356:Generated_Source\PSoC5/cyfitter_cfg.c **** /* This is an implementation detail of the AMux. Code that depends on it may be
 357:Generated_Source\PSoC5/cyfitter_cfg.c ****    incompatible with other versions of PSoC Creator. */
 358:Generated_Source\PSoC5/cyfitter_cfg.c **** uint8 CYXDATA * const CYCODE ADC_DelSig_1_AMux__addrTable[2] = {
 359:Generated_Source\PSoC5/cyfitter_cfg.c **** 	(uint8 CYXDATA *)CYREG_DSM0_SW3, 
 360:Generated_Source\PSoC5/cyfitter_cfg.c **** 	(uint8 CYXDATA *)CY_AMUX_UNUSED, 
 361:Generated_Source\PSoC5/cyfitter_cfg.c **** };
 362:Generated_Source\PSoC5/cyfitter_cfg.c **** 
 363:Generated_Source\PSoC5/cyfitter_cfg.c **** /* This is an implementation detail of the AMux. Code that depends on it may be
 364:Generated_Source\PSoC5/cyfitter_cfg.c ****    incompatible with other versions of PSoC Creator. */
 365:Generated_Source\PSoC5/cyfitter_cfg.c **** const uint8 CYCODE ADC_DelSig_1_AMux__maskTable[2] = {
 366:Generated_Source\PSoC5/cyfitter_cfg.c **** 	0x40u, 
 367:Generated_Source\PSoC5/cyfitter_cfg.c **** 	0x00u, 
 368:Generated_Source\PSoC5/cyfitter_cfg.c **** };
 369:Generated_Source\PSoC5/cyfitter_cfg.c **** 
 370:Generated_Source\PSoC5/cyfitter_cfg.c **** /*******************************************************************************
 371:Generated_Source\PSoC5/cyfitter_cfg.c **** * Function Name: ADC_DelSig_1_AMux_Set
ARM GAS  C:\Users\diego\AppData\Local\Temp\ccYPM1GK.s 			page 16


 372:Generated_Source\PSoC5/cyfitter_cfg.c **** ********************************************************************************
 373:Generated_Source\PSoC5/cyfitter_cfg.c **** * Summary:
 374:Generated_Source\PSoC5/cyfitter_cfg.c **** *  This function is used to set a particular channel as active on the AMux.
 375:Generated_Source\PSoC5/cyfitter_cfg.c **** *
 376:Generated_Source\PSoC5/cyfitter_cfg.c **** * Parameters:  
 377:Generated_Source\PSoC5/cyfitter_cfg.c **** *   channel - The mux channel input to set as active
 378:Generated_Source\PSoC5/cyfitter_cfg.c **** *
 379:Generated_Source\PSoC5/cyfitter_cfg.c **** * Return:
 380:Generated_Source\PSoC5/cyfitter_cfg.c **** *   void
 381:Generated_Source\PSoC5/cyfitter_cfg.c **** *
 382:Generated_Source\PSoC5/cyfitter_cfg.c **** *******************************************************************************/
 383:Generated_Source\PSoC5/cyfitter_cfg.c **** void ADC_DelSig_1_AMux_Set(uint8 channel)
 384:Generated_Source\PSoC5/cyfitter_cfg.c **** {
 442              		.loc 1 384 0
 443              		.cfi_startproc
 444              		@ args = 0, pretend = 0, frame = 0
 445              		@ frame_needed = 0, uses_anonymous_args = 0
 446              		@ link register save eliminated.
 447              	.LVL32:
 385:Generated_Source\PSoC5/cyfitter_cfg.c **** 	if (channel < 2)
 448              		.loc 1 385 0
 449 0000 0128     		cmp	r0, #1
 450 0002 07D8     		bhi	.L29
 386:Generated_Source\PSoC5/cyfitter_cfg.c **** 	{
 387:Generated_Source\PSoC5/cyfitter_cfg.c **** 		*ADC_DelSig_1_AMux__addrTable[channel] |= ADC_DelSig_1_AMux__maskTable[channel];
 451              		.loc 1 387 0
 452 0004 044B     		ldr	r3, .L31
 453 0006 53F82020 		ldr	r2, [r3, r0, lsl #2]
 454 000a 1844     		add	r0, r0, r3
 455              	.LVL33:
 456 000c 017A     		ldrb	r1, [r0, #8]	@ zero_extendqisi2
 457 000e 1378     		ldrb	r3, [r2]	@ zero_extendqisi2
 458 0010 0B43     		orrs	r3, r3, r1
 459 0012 1370     		strb	r3, [r2]
 460              	.L29:
 461 0014 7047     		bx	lr
 462              	.L32:
 463 0016 00BF     		.align	2
 464              	.L31:
 465 0018 00000000 		.word	.LANCHOR0
 466              		.cfi_endproc
 467              	.LFE8:
 468              		.size	ADC_DelSig_1_AMux_Set, .-ADC_DelSig_1_AMux_Set
 469              		.section	.text.ADC_DelSig_1_AMux_Unset,"ax",%progbits
 470              		.align	2
 471              		.global	ADC_DelSig_1_AMux_Unset
 472              		.thumb
 473              		.thumb_func
 474              		.type	ADC_DelSig_1_AMux_Unset, %function
 475              	ADC_DelSig_1_AMux_Unset:
 476              	.LFB9:
 388:Generated_Source\PSoC5/cyfitter_cfg.c **** 	}
 389:Generated_Source\PSoC5/cyfitter_cfg.c **** }
 390:Generated_Source\PSoC5/cyfitter_cfg.c **** 
 391:Generated_Source\PSoC5/cyfitter_cfg.c **** /*******************************************************************************
 392:Generated_Source\PSoC5/cyfitter_cfg.c **** * Function Name: ADC_DelSig_1_AMux_Unset
 393:Generated_Source\PSoC5/cyfitter_cfg.c **** ********************************************************************************
ARM GAS  C:\Users\diego\AppData\Local\Temp\ccYPM1GK.s 			page 17


 394:Generated_Source\PSoC5/cyfitter_cfg.c **** * Summary:
 395:Generated_Source\PSoC5/cyfitter_cfg.c **** *  This function is used to clear a particular channel from being active on the
 396:Generated_Source\PSoC5/cyfitter_cfg.c **** *  AMux.
 397:Generated_Source\PSoC5/cyfitter_cfg.c **** *
 398:Generated_Source\PSoC5/cyfitter_cfg.c **** * Parameters:  
 399:Generated_Source\PSoC5/cyfitter_cfg.c **** *   channel - The mux channel input to mark inactive
 400:Generated_Source\PSoC5/cyfitter_cfg.c **** *
 401:Generated_Source\PSoC5/cyfitter_cfg.c **** * Return:
 402:Generated_Source\PSoC5/cyfitter_cfg.c **** *   void
 403:Generated_Source\PSoC5/cyfitter_cfg.c **** *
 404:Generated_Source\PSoC5/cyfitter_cfg.c **** *******************************************************************************/
 405:Generated_Source\PSoC5/cyfitter_cfg.c **** void ADC_DelSig_1_AMux_Unset(uint8 channel)
 406:Generated_Source\PSoC5/cyfitter_cfg.c **** {
 477              		.loc 1 406 0
 478              		.cfi_startproc
 479              		@ args = 0, pretend = 0, frame = 0
 480              		@ frame_needed = 0, uses_anonymous_args = 0
 481              		@ link register save eliminated.
 482              	.LVL34:
 407:Generated_Source\PSoC5/cyfitter_cfg.c **** 	if (channel < 2)
 483              		.loc 1 407 0
 484 0000 0128     		cmp	r0, #1
 485 0002 08D8     		bhi	.L33
 408:Generated_Source\PSoC5/cyfitter_cfg.c **** 	{
 409:Generated_Source\PSoC5/cyfitter_cfg.c **** 		*ADC_DelSig_1_AMux__addrTable[channel] &= (uint8)~ADC_DelSig_1_AMux__maskTable[channel];
 486              		.loc 1 409 0
 487 0004 044B     		ldr	r3, .L35
 488 0006 53F82020 		ldr	r2, [r3, r0, lsl #2]
 489 000a 1844     		add	r0, r0, r3
 490              	.LVL35:
 491 000c 017A     		ldrb	r1, [r0, #8]	@ zero_extendqisi2
 492 000e 1378     		ldrb	r3, [r2]	@ zero_extendqisi2
 493 0010 23EA0103 		bic	r3, r3, r1
 494 0014 1370     		strb	r3, [r2]
 495              	.L33:
 496 0016 7047     		bx	lr
 497              	.L36:
 498              		.align	2
 499              	.L35:
 500 0018 00000000 		.word	.LANCHOR0
 501              		.cfi_endproc
 502              	.LFE9:
 503              		.size	ADC_DelSig_1_AMux_Unset, .-ADC_DelSig_1_AMux_Unset
 504              		.section	.text.cyfitter_cfg,"ax",%progbits
 505              		.align	2
 506              		.global	cyfitter_cfg
 507              		.thumb
 508              		.thumb_func
 509              		.type	cyfitter_cfg, %function
 510              	cyfitter_cfg:
 511              	.LFB10:
 410:Generated_Source\PSoC5/cyfitter_cfg.c **** 	}
 411:Generated_Source\PSoC5/cyfitter_cfg.c **** }
 412:Generated_Source\PSoC5/cyfitter_cfg.c **** 
 413:Generated_Source\PSoC5/cyfitter_cfg.c **** 
 414:Generated_Source\PSoC5/cyfitter_cfg.c **** 
 415:Generated_Source\PSoC5/cyfitter_cfg.c **** /*******************************************************************************
ARM GAS  C:\Users\diego\AppData\Local\Temp\ccYPM1GK.s 			page 18


 416:Generated_Source\PSoC5/cyfitter_cfg.c **** * Function Name: cyfitter_cfg
 417:Generated_Source\PSoC5/cyfitter_cfg.c **** ********************************************************************************
 418:Generated_Source\PSoC5/cyfitter_cfg.c **** * Summary:
 419:Generated_Source\PSoC5/cyfitter_cfg.c **** *  This function is called by the start-up code for the selected device. It
 420:Generated_Source\PSoC5/cyfitter_cfg.c **** *  performs all of the necessary device configuration based on the design
 421:Generated_Source\PSoC5/cyfitter_cfg.c **** *  settings.  This includes settings from the Design Wide Resources (DWR) such
 422:Generated_Source\PSoC5/cyfitter_cfg.c **** *  as Clocks and Pins as well as any component configuration that is necessary.
 423:Generated_Source\PSoC5/cyfitter_cfg.c **** *
 424:Generated_Source\PSoC5/cyfitter_cfg.c **** * Parameters:
 425:Generated_Source\PSoC5/cyfitter_cfg.c **** *   void
 426:Generated_Source\PSoC5/cyfitter_cfg.c **** *
 427:Generated_Source\PSoC5/cyfitter_cfg.c **** * Return:
 428:Generated_Source\PSoC5/cyfitter_cfg.c **** *   void
 429:Generated_Source\PSoC5/cyfitter_cfg.c **** *
 430:Generated_Source\PSoC5/cyfitter_cfg.c **** *******************************************************************************/
 431:Generated_Source\PSoC5/cyfitter_cfg.c **** 
 432:Generated_Source\PSoC5/cyfitter_cfg.c **** void cyfitter_cfg(void)
 433:Generated_Source\PSoC5/cyfitter_cfg.c **** {
 512              		.loc 1 433 0
 513              		.cfi_startproc
 514              		@ args = 0, pretend = 0, frame = 0
 515              		@ frame_needed = 0, uses_anonymous_args = 0
 516 0000 38B5     		push	{r3, r4, r5, lr}
 517              		.cfi_def_cfa_offset 16
 518              		.cfi_offset 3, -16
 519              		.cfi_offset 4, -12
 520              		.cfi_offset 5, -8
 521              		.cfi_offset 14, -4
 434:Generated_Source\PSoC5/cyfitter_cfg.c **** #ifdef CYGlobalIntDisable
 435:Generated_Source\PSoC5/cyfitter_cfg.c **** 	/* Disable interrupts by default. Let user enable if/when they want. */
 436:Generated_Source\PSoC5/cyfitter_cfg.c **** 	CYGlobalIntDisable
 522              		.loc 1 436 0
 523              		.syntax unified
 524              	@ 436 "Generated_Source\PSoC5\cyfitter_cfg.c" 1
 525 0002 72B6     		CPSID   i
 526              	@ 0 "" 2
 437:Generated_Source\PSoC5/cyfitter_cfg.c **** #endif
 438:Generated_Source\PSoC5/cyfitter_cfg.c **** 
 439:Generated_Source\PSoC5/cyfitter_cfg.c **** 	/* Enable/Disable Debug functionality based on settings from System DWR */
 440:Generated_Source\PSoC5/cyfitter_cfg.c **** 	CY_SET_XTND_REG8((void CYFAR *)CYREG_MLOGIC_DEBUG, (CY_GET_XTND_REG8((void CYFAR *)CYREG_MLOGIC_DE
 527              		.loc 1 440 0
 528              		.thumb
 529              		.syntax unified
 530 0004 3D4A     		ldr	r2, .L43
 531 0006 1378     		ldrb	r3, [r2]	@ zero_extendqisi2
 532 0008 43F00403 		orr	r3, r3, #4
 533 000c 1370     		strb	r3, [r2]
 534              	.LVL36:
 535              	.LBB3:
 441:Generated_Source\PSoC5/cyfitter_cfg.c **** 
 442:Generated_Source\PSoC5/cyfitter_cfg.c **** 	{
 443:Generated_Source\PSoC5/cyfitter_cfg.c **** 
 444:Generated_Source\PSoC5/cyfitter_cfg.c **** 		CYPACKED typedef struct {
 445:Generated_Source\PSoC5/cyfitter_cfg.c **** 			void CYFAR *address;
 446:Generated_Source\PSoC5/cyfitter_cfg.c **** 			uint16 size;
 447:Generated_Source\PSoC5/cyfitter_cfg.c **** 		} CYPACKED_ATTR cfg_memset_t;
 448:Generated_Source\PSoC5/cyfitter_cfg.c **** 
ARM GAS  C:\Users\diego\AppData\Local\Temp\ccYPM1GK.s 			page 19


 449:Generated_Source\PSoC5/cyfitter_cfg.c **** 
 450:Generated_Source\PSoC5/cyfitter_cfg.c **** 		CYPACKED typedef struct {
 451:Generated_Source\PSoC5/cyfitter_cfg.c **** 			void CYFAR *dest;
 452:Generated_Source\PSoC5/cyfitter_cfg.c **** 			const void CYFAR *src;
 453:Generated_Source\PSoC5/cyfitter_cfg.c **** 			uint16 size;
 454:Generated_Source\PSoC5/cyfitter_cfg.c **** 		} CYPACKED_ATTR cfg_memcpy_t;
 455:Generated_Source\PSoC5/cyfitter_cfg.c **** 
 456:Generated_Source\PSoC5/cyfitter_cfg.c **** 		static const cfg_memset_t CYCODE cfg_memset_list[] = {
 457:Generated_Source\PSoC5/cyfitter_cfg.c **** 			/* address, size */
 458:Generated_Source\PSoC5/cyfitter_cfg.c **** 			{(void CYFAR *)(CYREG_TMR0_CFG0), 12u},
 459:Generated_Source\PSoC5/cyfitter_cfg.c **** 			{(void CYFAR *)(CYREG_PRT4_DR), 16u},
 460:Generated_Source\PSoC5/cyfitter_cfg.c **** 			{(void CYFAR *)(CYREG_PRT6_DR), 16u},
 461:Generated_Source\PSoC5/cyfitter_cfg.c **** 			{(void CYFAR *)(CYREG_PRT12_DR), 16u},
 462:Generated_Source\PSoC5/cyfitter_cfg.c **** 			{(void CYFAR *)(CYREG_PRT15_DR), 16u},
 463:Generated_Source\PSoC5/cyfitter_cfg.c **** 			{(void CYFAR *)(CYDEV_UCFG_B0_P0_U0_BASE), 2688u},
 464:Generated_Source\PSoC5/cyfitter_cfg.c **** 			{(void CYFAR *)(CYDEV_UCFG_B0_P5_ROUTE_BASE), 1280u},
 465:Generated_Source\PSoC5/cyfitter_cfg.c **** 			{(void CYFAR *)(CYDEV_UCFG_B1_P2_U0_BASE), 2048u},
 466:Generated_Source\PSoC5/cyfitter_cfg.c **** 			{(void CYFAR *)(CYDEV_UCFG_DSI0_BASE), 2560u},
 467:Generated_Source\PSoC5/cyfitter_cfg.c **** 			{(void CYFAR *)(CYDEV_UCFG_DSI12_BASE), 512u},
 468:Generated_Source\PSoC5/cyfitter_cfg.c **** 			{(void CYFAR *)(CYREG_BCTL0_MDCLK_EN), 32u},
 469:Generated_Source\PSoC5/cyfitter_cfg.c **** 		};
 470:Generated_Source\PSoC5/cyfitter_cfg.c **** 
 471:Generated_Source\PSoC5/cyfitter_cfg.c **** 		static const cfg_memcpy_t CYCODE cfg_memcpy_list [] = {
 472:Generated_Source\PSoC5/cyfitter_cfg.c **** 			/* dest, src, size */
 473:Generated_Source\PSoC5/cyfitter_cfg.c **** 			{(void CYFAR *)(CYDEV_UCFG_B0_P5_U1_BASE), BS_UDB_0_3_1_CONFIG_VAL, 128u},
 474:Generated_Source\PSoC5/cyfitter_cfg.c **** 		};
 475:Generated_Source\PSoC5/cyfitter_cfg.c **** 
 476:Generated_Source\PSoC5/cyfitter_cfg.c **** 		uint8 CYDATA i;
 477:Generated_Source\PSoC5/cyfitter_cfg.c **** 
 478:Generated_Source\PSoC5/cyfitter_cfg.c **** 		/* Zero out critical memory blocks before beginning configuration */
 479:Generated_Source\PSoC5/cyfitter_cfg.c **** 		for (i = 0u; i < (sizeof(cfg_memset_list)/sizeof(cfg_memset_list[0])); i++)
 536              		.loc 1 479 0
 537 000e 0024     		movs	r4, #0
 538 0010 0BE0     		b	.L38
 539              	.LVL37:
 540              	.L39:
 541              	.LBB4:
 480:Generated_Source\PSoC5/cyfitter_cfg.c **** 		{
 481:Generated_Source\PSoC5/cyfitter_cfg.c **** 			const cfg_memset_t CYCODE * CYDATA ms = &cfg_memset_list[i];
 482:Generated_Source\PSoC5/cyfitter_cfg.c **** 			CYMEMZERO(ms->address, (size_t)(uint32)(ms->size));
 542              		.loc 1 482 0 discriminator 3
 543 0012 3B48     		ldr	r0, .L43+4
 544 0014 6300     		lsls	r3, r4, #1
 545 0016 1A19     		adds	r2, r3, r4
 546 0018 5100     		lsls	r1, r2, #1
 547 001a 0144     		add	r1, r1, r0
 548 001c 0A46     		mov	r2, r1
 549 001e 098A     		ldrh	r1, [r1, #16]
 550 0020 D068     		ldr	r0, [r2, #12]	@ unaligned
 551 0022 FFF7FEFF 		bl	CYMEMZERO
 552              	.LVL38:
 553              	.LBE4:
 479:Generated_Source\PSoC5/cyfitter_cfg.c **** 		{
 554              		.loc 1 479 0 discriminator 3
 555 0026 0134     		adds	r4, r4, #1
 556              	.LVL39:
 557 0028 E4B2     		uxtb	r4, r4
ARM GAS  C:\Users\diego\AppData\Local\Temp\ccYPM1GK.s 			page 20


 558              	.LVL40:
 559              	.L38:
 479:Generated_Source\PSoC5/cyfitter_cfg.c **** 		{
 560              		.loc 1 479 0 is_stmt 0 discriminator 1
 561 002a 0A2C     		cmp	r4, #10
 562 002c F1D9     		bls	.L39
 563 002e 0024     		movs	r4, #0
 564              	.LVL41:
 565 0030 0BE0     		b	.L40
 566              	.LVL42:
 567              	.L41:
 568              	.LBB5:
 483:Generated_Source\PSoC5/cyfitter_cfg.c **** 		}
 484:Generated_Source\PSoC5/cyfitter_cfg.c **** 
 485:Generated_Source\PSoC5/cyfitter_cfg.c **** 		/* Copy device configuration data into registers */
 486:Generated_Source\PSoC5/cyfitter_cfg.c **** 		for (i = 0u; i < (sizeof(cfg_memcpy_list)/sizeof(cfg_memcpy_list[0])); i++)
 487:Generated_Source\PSoC5/cyfitter_cfg.c **** 		{
 488:Generated_Source\PSoC5/cyfitter_cfg.c **** 			const cfg_memcpy_t CYCODE * CYDATA mc = &cfg_memcpy_list[i];
 489:Generated_Source\PSoC5/cyfitter_cfg.c **** 			void * CYDATA destPtr = mc->dest;
 569              		.loc 1 489 0 is_stmt 1 discriminator 3
 570 0032 3349     		ldr	r1, .L43+4
 571 0034 A300     		lsls	r3, r4, #2
 572 0036 1819     		adds	r0, r3, r4
 573 0038 4200     		lsls	r2, r0, #1
 574 003a 8818     		adds	r0, r1, r2
 575              	.LVL43:
 490:Generated_Source\PSoC5/cyfitter_cfg.c **** 			const void * CYDATA srcPtr = mc->src;
 491:Generated_Source\PSoC5/cyfitter_cfg.c **** 			uint16 CYDATA numBytes = mc->size;
 492:Generated_Source\PSoC5/cyfitter_cfg.c **** 			CYCONFIGCPY(destPtr, srcPtr, numBytes);
 576              		.loc 1 492 0 discriminator 3
 577 003c 8022     		movs	r2, #128
 578 003e 416D     		ldr	r1, [r0, #84]	@ unaligned
 579              	.LVL44:
 580 0040 006D     		ldr	r0, [r0, #80]	@ unaligned
 581              	.LVL45:
 582 0042 FFF7FEFF 		bl	CYCONFIGCPY
 583              	.LVL46:
 584              	.LBE5:
 486:Generated_Source\PSoC5/cyfitter_cfg.c **** 		{
 585              		.loc 1 486 0 discriminator 3
 586 0046 0134     		adds	r4, r4, #1
 587              	.LVL47:
 588 0048 E4B2     		uxtb	r4, r4
 589              	.LVL48:
 590              	.L40:
 486:Generated_Source\PSoC5/cyfitter_cfg.c **** 		{
 591              		.loc 1 486 0 is_stmt 0 discriminator 1
 592 004a 002C     		cmp	r4, #0
 593 004c F1D0     		beq	.L41
 493:Generated_Source\PSoC5/cyfitter_cfg.c **** 		}
 494:Generated_Source\PSoC5/cyfitter_cfg.c **** 
 495:Generated_Source\PSoC5/cyfitter_cfg.c **** 		cfg_write_bytes32(cy_cfg_addr_table, cy_cfg_data_table);
 594              		.loc 1 495 0 is_stmt 1
 595 004e 2D49     		ldr	r1, .L43+8
 596 0050 4FF09040 		mov	r0, #1207959552
 597 0054 FFF7FEFF 		bl	cfg_write_bytes32
 598              	.LVL49:
ARM GAS  C:\Users\diego\AppData\Local\Temp\ccYPM1GK.s 			page 21


 496:Generated_Source\PSoC5/cyfitter_cfg.c **** 
 497:Generated_Source\PSoC5/cyfitter_cfg.c **** 		/* Perform normal device configuration. Order is not critical for these items. */
 498:Generated_Source\PSoC5/cyfitter_cfg.c **** 		CY_SET_XTND_REG8((void CYFAR *)(CYREG_DSM0_CR3), 0x0Au);
 599              		.loc 1 498 0
 600 0058 0A22     		movs	r2, #10
 601 005a 2B4B     		ldr	r3, .L43+12
 602 005c 1A70     		strb	r2, [r3]
 499:Generated_Source\PSoC5/cyfitter_cfg.c **** 
 500:Generated_Source\PSoC5/cyfitter_cfg.c **** 		/* B0_P4_U0_CFG24 Starting address: CYDEV_UCFG_B0_P4_U0_CFG24 */
 501:Generated_Source\PSoC5/cyfitter_cfg.c **** 		CY_SET_XTND_REG32((void CYFAR *)(CYREG_B0_P4_U0_CFG24), 0x44000404u);
 603              		.loc 1 501 0
 604 005e 2B49     		ldr	r1, .L43+16
 605 0060 03F52F43 		add	r3, r3, #44800
 606 0064 D533     		adds	r3, r3, #213
 607 0066 1960     		str	r1, [r3]
 502:Generated_Source\PSoC5/cyfitter_cfg.c **** 
 503:Generated_Source\PSoC5/cyfitter_cfg.c **** 		/* B0_P7_U0_CFG24 Starting address: CYDEV_UCFG_B0_P7_U0_CFG24 */
 504:Generated_Source\PSoC5/cyfitter_cfg.c **** 		CY_SET_XTND_REG32((void CYFAR *)(CYREG_B0_P7_U0_CFG24), 0x84040404u);
 608              		.loc 1 504 0
 609 0068 2949     		ldr	r1, .L43+20
 610 006a 03F5C063 		add	r3, r3, #1536
 611 006e 1960     		str	r1, [r3]
 505:Generated_Source\PSoC5/cyfitter_cfg.c **** 
 506:Generated_Source\PSoC5/cyfitter_cfg.c **** 		/* Enable digital routing */
 507:Generated_Source\PSoC5/cyfitter_cfg.c **** 		CY_SET_XTND_REG8((void CYFAR *)CYREG_BCTL0_BANK_CTL, CY_GET_XTND_REG8((void CYFAR *)CYREG_BCTL0_B
 612              		.loc 1 507 0
 613 0070 2849     		ldr	r1, .L43+24
 614 0072 0B78     		ldrb	r3, [r1]	@ zero_extendqisi2
 615 0074 43F00203 		orr	r3, r3, #2
 616 0078 0B70     		strb	r3, [r1]
 508:Generated_Source\PSoC5/cyfitter_cfg.c **** 		CY_SET_XTND_REG8((void CYFAR *)CYREG_BCTL1_BANK_CTL, CY_GET_XTND_REG8((void CYFAR *)CYREG_BCTL1_B
 617              		.loc 1 508 0
 618 007a 1031     		adds	r1, r1, #16
 619 007c 0B78     		ldrb	r3, [r1]	@ zero_extendqisi2
 620 007e 43F00203 		orr	r3, r3, #2
 621 0082 0B70     		strb	r3, [r1]
 509:Generated_Source\PSoC5/cyfitter_cfg.c **** 
 510:Generated_Source\PSoC5/cyfitter_cfg.c **** 		/* Enable UDB array */
 511:Generated_Source\PSoC5/cyfitter_cfg.c **** 		CY_SET_XTND_REG8((void CYFAR *)CYREG_PM_ACT_CFG0, CY_GET_XTND_REG8((void CYFAR *)CYREG_PM_ACT_CFG
 622              		.loc 1 511 0
 623 0084 244C     		ldr	r4, .L43+28
 624              	.LVL50:
 625 0086 2378     		ldrb	r3, [r4]	@ zero_extendqisi2
 626 0088 43F04003 		orr	r3, r3, #64
 627 008c 2370     		strb	r3, [r4]
 512:Generated_Source\PSoC5/cyfitter_cfg.c **** 		CY_SET_XTND_REG8((void CYFAR *)CYREG_PM_AVAIL_CR2, CY_GET_XTND_REG8((void CYFAR *)CYREG_PM_AVAIL_
 628              		.loc 1 512 0
 629 008e A1F58631 		sub	r1, r1, #68608
 630 0092 5139     		subs	r1, r1, #81
 631 0094 0B78     		ldrb	r3, [r1]	@ zero_extendqisi2
 632 0096 43F01003 		orr	r3, r3, #16
 633 009a 0B70     		strb	r3, [r1]
 634              	.LBE3:
 513:Generated_Source\PSoC5/cyfitter_cfg.c **** 	}
 514:Generated_Source\PSoC5/cyfitter_cfg.c **** 
 515:Generated_Source\PSoC5/cyfitter_cfg.c **** 
 516:Generated_Source\PSoC5/cyfitter_cfg.c **** 	/* Perform second pass device configuration. These items must be configured in specific order afte
ARM GAS  C:\Users\diego\AppData\Local\Temp\ccYPM1GK.s 			page 22


 517:Generated_Source\PSoC5/cyfitter_cfg.c **** 	CYCONFIGCPY((void CYFAR *)(CYREG_PRT0_DR), (const void CYFAR *)(BS_IOPINS0_0_VAL), 10u);
 635              		.loc 1 517 0
 636 009c 1F49     		ldr	r1, .L43+32
 637 009e 2048     		ldr	r0, .L43+36
 638 00a0 FFF7FEFF 		bl	CYCONFIGCPY
 639              	.LVL51:
 518:Generated_Source\PSoC5/cyfitter_cfg.c **** 	CYCONFIGCPY((void CYFAR *)(CYREG_PRT1_DM0), (const void CYFAR *)(BS_IOPINS0_1_VAL), 8u);
 640              		.loc 1 518 0
 641 00a4 0822     		movs	r2, #8
 642 00a6 1F49     		ldr	r1, .L43+40
 643 00a8 1F48     		ldr	r0, .L43+44
 644 00aa FFF7FEFF 		bl	CYCONFIGCPY
 645              	.LVL52:
 519:Generated_Source\PSoC5/cyfitter_cfg.c **** 	CYCONFIGCPY((void CYFAR *)(CYREG_PRT2_DM0), (const void CYFAR *)(BS_IOPINS0_2_VAL), 8u);
 646              		.loc 1 519 0
 647 00ae 0822     		movs	r2, #8
 648 00b0 1E49     		ldr	r1, .L43+48
 649 00b2 1F48     		ldr	r0, .L43+52
 650 00b4 FFF7FEFF 		bl	CYCONFIGCPY
 651              	.LVL53:
 520:Generated_Source\PSoC5/cyfitter_cfg.c **** 	CYCONFIGCPY((void CYFAR *)(CYREG_PRT3_DM0), (const void CYFAR *)(BS_IOPINS0_3_VAL), 8u);
 652              		.loc 1 520 0
 653 00b8 0822     		movs	r2, #8
 654 00ba 1E49     		ldr	r1, .L43+56
 655 00bc 1E48     		ldr	r0, .L43+60
 656 00be FFF7FEFF 		bl	CYCONFIGCPY
 657              	.LVL54:
 521:Generated_Source\PSoC5/cyfitter_cfg.c **** 	CYCONFIGCPY((void CYFAR *)(CYREG_PRT5_DM0), (const void CYFAR *)(BS_IOPINS0_5_VAL), 8u);
 658              		.loc 1 521 0
 659 00c2 0822     		movs	r2, #8
 660 00c4 1D49     		ldr	r1, .L43+64
 661 00c6 1E48     		ldr	r0, .L43+68
 662 00c8 FFF7FEFF 		bl	CYCONFIGCPY
 663              	.LVL55:
 522:Generated_Source\PSoC5/cyfitter_cfg.c **** 	/* Switch Boost to the precision bandgap reference from its internal reference */
 523:Generated_Source\PSoC5/cyfitter_cfg.c **** 	CY_SET_REG8((void CYXDATA *)CYREG_BOOST_CR2, (CY_GET_REG8((void CYXDATA *)CYREG_BOOST_CR2) | 0x08u
 664              		.loc 1 523 0
 665 00cc 1D4A     		ldr	r2, .L43+72
 666 00ce 1378     		ldrb	r3, [r2]	@ zero_extendqisi2
 667 00d0 43F00803 		orr	r3, r3, #8
 668 00d4 1370     		strb	r3, [r2]
 524:Generated_Source\PSoC5/cyfitter_cfg.c **** 
 525:Generated_Source\PSoC5/cyfitter_cfg.c **** 	/* Set Flash Cycles based on max possible frequency in case a glitch occurs during ClockSetup(). *
 526:Generated_Source\PSoC5/cyfitter_cfg.c **** 	CY_SET_XTND_REG8((void CYFAR *)(CYREG_CACHE_CC_CTL), (((CYDEV_INSTRUCT_CACHE_ENABLED) != 0) ? 0x61
 669              		.loc 1 526 0
 670 00d6 1C4D     		ldr	r5, .L43+76
 671 00d8 6123     		movs	r3, #97
 672 00da 2B70     		strb	r3, [r5]
 527:Generated_Source\PSoC5/cyfitter_cfg.c **** 	/* Setup clocks based on selections from Clock DWR */
 528:Generated_Source\PSoC5/cyfitter_cfg.c **** 	ClockSetup();
 673              		.loc 1 528 0
 674 00dc FFF7FEFF 		bl	ClockSetup
 675              	.LVL56:
 529:Generated_Source\PSoC5/cyfitter_cfg.c **** 	/* Set Flash Cycles based on newly configured 24.00MHz Bus Clock. */
 530:Generated_Source\PSoC5/cyfitter_cfg.c **** 	CY_SET_XTND_REG8((void CYFAR *)(CYREG_CACHE_CC_CTL), (((CYDEV_INSTRUCT_CACHE_ENABLED) != 0) ? 0x81
 676              		.loc 1 530 0
 677 00e0 8123     		movs	r3, #129
ARM GAS  C:\Users\diego\AppData\Local\Temp\ccYPM1GK.s 			page 23


 678 00e2 2B70     		strb	r3, [r5]
 531:Generated_Source\PSoC5/cyfitter_cfg.c **** 	CY_SET_XTND_REG8((void CYFAR *)(CYREG_PANTHER_WAITPIPE), 0x01u);
 679              		.loc 1 531 0
 680 00e4 0122     		movs	r2, #1
 681 00e6 194B     		ldr	r3, .L43+80
 682 00e8 1A70     		strb	r2, [r3]
 532:Generated_Source\PSoC5/cyfitter_cfg.c **** 
 533:Generated_Source\PSoC5/cyfitter_cfg.c **** 	/* Perform basic analog initialization to defaults */
 534:Generated_Source\PSoC5/cyfitter_cfg.c **** 	AnalogSetDefault();
 683              		.loc 1 534 0
 684 00ea FFF7FEFF 		bl	AnalogSetDefault
 685              	.LVL57:
 535:Generated_Source\PSoC5/cyfitter_cfg.c **** 
 536:Generated_Source\PSoC5/cyfitter_cfg.c **** 	/* Configure alternate active mode */
 537:Generated_Source\PSoC5/cyfitter_cfg.c **** 	CYCONFIGCPY((void CYFAR *)CYDEV_PM_STBY_BASE, (const void CYFAR *)CYDEV_PM_ACT_BASE, 14u);
 686              		.loc 1 537 0
 687 00ee 0E22     		movs	r2, #14
 688 00f0 2146     		mov	r1, r4
 689 00f2 1748     		ldr	r0, .L43+84
 690 00f4 FFF7FEFF 		bl	CYCONFIGCPY
 691              	.LVL58:
 692 00f8 38BD     		pop	{r3, r4, r5, pc}
 693              	.L44:
 694 00fa 00BF     		.align	2
 695              	.L43:
 696 00fc E8460040 		.word	1073759976
 697 0100 00000000 		.word	.LANCHOR0
 698 0104 84000048 		.word	1207959684
 699 0108 83580040 		.word	1073764483
 700 010c 04040044 		.word	1140851716
 701 0110 04040484 		.word	-2080111612
 702 0114 03500140 		.word	1073827843
 703 0118 A0430040 		.word	1073759136
 704 011c 84080048 		.word	1207961732
 705 0120 00510040 		.word	1073762560
 706 0124 90080048 		.word	1207961744
 707 0128 12510040 		.word	1073762578
 708 012c 98080048 		.word	1207961752
 709 0130 22510040 		.word	1073762594
 710 0134 A0080048 		.word	1207961760
 711 0138 32510040 		.word	1073762610
 712 013c A8080048 		.word	1207961768
 713 0140 52510040 		.word	1073762642
 714 0144 22430040 		.word	1073759010
 715 0148 00480040 		.word	1073760256
 716 014c 04000840 		.word	1074266116
 717 0150 B0430040 		.word	1073759152
 718              		.cfi_endproc
 719              	.LFE10:
 720              		.size	cyfitter_cfg, .-cyfitter_cfg
 721              		.global	ADC_DelSig_1_AMux__maskTable
 722              		.global	ADC_DelSig_1_AMux__addrTable
 723              		.section	.rodata
 724              		.align	2
 725              		.set	.LANCHOR0,. + 0
 726              		.type	ADC_DelSig_1_AMux__addrTable, %object
 727              		.size	ADC_DelSig_1_AMux__addrTable, 8
ARM GAS  C:\Users\diego\AppData\Local\Temp\ccYPM1GK.s 			page 24


 728              	ADC_DelSig_1_AMux__addrTable:
 729 0000 035B0040 		.word	1073765123
 730 0004 24430040 		.word	1073759012
 731              		.type	ADC_DelSig_1_AMux__maskTable, %object
 732              		.size	ADC_DelSig_1_AMux__maskTable, 2
 733              	ADC_DelSig_1_AMux__maskTable:
 734 0008 40       		.byte	64
 735 0009 00       		.byte	0
 736 000a 0000     		.space	2
 737              		.type	cfg_memset_list.5032, %object
 738              		.size	cfg_memset_list.5032, 66
 739              	cfg_memset_list.5032:
 740 000c 004F0040 		.word	1073762048
 741 0010 0C00     		.short	12
 742 0012 40510040 		.4byte	1073762624
 743 0016 1000     		.short	16
 744 0018 60510040 		.word	1073762656
 745 001c 1000     		.short	16
 746 001e C0510040 		.4byte	1073762752
 747 0022 1000     		.short	16
 748 0024 F0510040 		.word	1073762800
 749 0028 1000     		.short	16
 750 002a 00000140 		.4byte	1073807360
 751 002e 800A     		.short	2688
 752 0030 000B0140 		.word	1073810176
 753 0034 0005     		.short	1280
 754 0036 00140140 		.4byte	1073812480
 755 003a 0008     		.short	2048
 756 003c 00400140 		.word	1073823744
 757 0040 000A     		.short	2560
 758 0042 004C0140 		.4byte	1073826816
 759 0046 0002     		.short	512
 760 0048 00500140 		.word	1073827840
 761 004c 2000     		.short	32
 762 004e 0000     		.space	2
 763              		.type	cfg_memcpy_list.5033, %object
 764              		.size	cfg_memcpy_list.5033, 10
 765              	cfg_memcpy_list.5033:
 766 0050 800A0140 		.word	1073810048
 767 0054 04080048 		.word	1207961604
 768 0058 8000     		.short	128
 769              		.text
 770              	.Letext0:
 771              		.file 2 "c:\\program files (x86)\\cypress\\psoc creator\\4.2\\psoc creator\\import\\gnu\\arm\\5.4.
 772              		.file 3 "Generated_Source\\PSoC5\\cytypes.h"
 773              		.file 4 "Generated_Source\\PSoC5\\CyLib.h"