ARM GAS  C:\Users\diego\AppData\Local\Temp\ccfOsMvl.s 			page 1


   1              		.syntax unified
   2              		.cpu cortex-m3
   3              		.fpu softvfp
   4              		.eabi_attribute 20, 1
   5              		.eabi_attribute 21, 1
   6              		.eabi_attribute 23, 3
   7              		.eabi_attribute 24, 1
   8              		.eabi_attribute 25, 1
   9              		.eabi_attribute 26, 1
  10              		.eabi_attribute 30, 1
  11              		.eabi_attribute 34, 1
  12              		.eabi_attribute 18, 4
  13              		.thumb
  14              		.syntax unified
  15              		.file	"main.c"
  16              		.text
  17              	.Ltext0:
  18              		.cfi_sections	.debug_frame
  19              		.global	__aeabi_fsub
  20              		.global	__aeabi_fmul
  21              		.global	__aeabi_fadd
  22              		.global	__aeabi_f2d
  23              		.global	__aeabi_dcmpgt
  24              		.global	__aeabi_dcmplt
  25              		.global	__aeabi_ddiv
  26              		.global	__aeabi_d2f
  27              		.section	.text.isr_Timer_Handler,"ax",%progbits
  28              		.align	2
  29              		.global	isr_Timer_Handler
  30              		.thumb
  31              		.thumb_func
  32              		.type	isr_Timer_Handler, %function
  33              	isr_Timer_Handler:
  34              	.LFB65:
  35              		.file 1 "main.c"
   1:main.c        **** #include <project.h>
   2:main.c        **** #include <string.h>
   3:main.c        **** #include <stdio.h>
   4:main.c        **** #include <math.h>
   5:main.c        **** 
   6:main.c        **** 
   7:main.c        **** /* Global constants */
   8:main.c        ****  #define PWM_MAX         499   // PWM 100% (499) with Tpwm = 500us @ 1MHz (500 counts)
   9:main.c        ****  #define V_MAX           5
  10:main.c        ****  #define N_MAX           PWM_MAX+1
  11:main.c        ****  #define PWM_FACTOR      N_MAX/V_MAX   // 100 counts/volt with Tpwm = 500us @ 1MHz
  12:main.c        ****  #define MaxAnguloMotor  1.5708 
  13:main.c        **** 
  14:main.c        ****  #define REFERENCE      0    // 
  15:main.c        ****  #define MAXINTEGRAL    4.7  // Limits the integral part to 4.7V
  16:main.c        ****  #define TS_FACTOR      1    // 5ms counts for Ts = 5ms
  17:main.c        **** 
  18:main.c        **** int16 pwm = 0;
  19:main.c        **** int cnt1 = 0;
  20:main.c        **** float angulo1 = 0;
  21:main.c        **** 
  22:main.c        **** int cnt2 = 0;
ARM GAS  C:\Users\diego\AppData\Local\Temp\ccfOsMvl.s 			page 2


  23:main.c        **** float angulo2 = 0;
  24:main.c        **** 
  25:main.c        **** float adcMeas  = 0;
  26:main.c        **** float Tension = 0;
  27:main.c        **** 
  28:main.c        **** /* PID algorithm global variables */
  29:main.c        **** float KD;               // Derivative default constant
  30:main.c        **** float KP = 0.21;       // Proportional default constant
  31:main.c        **** float KI = 0.158;      // Integral default constant @ 5ms
  32:main.c        **** volatile float ik = 0; // Integral action and memory
  33:main.c        **** float dk = 0; // Integral action and memory
  34:main.c        **** float mk = 0;   // total control action
  35:main.c        **** 
  36:main.c        **** 
  37:main.c        **** 
  38:main.c        **** 
  39:main.c        **** void transmit(float input, int tab)
  40:main.c        **** {
  41:main.c        ****     char StringBuff[50];
  42:main.c        ****     input = input*1000;
  43:main.c        ****     int sender = input;
  44:main.c        ****     // Verify if we have to put a tab or endl
  45:main.c        ****     if(tab == 1)
  46:main.c        ****         sprintf(StringBuff, "%d\t", sender);
  47:main.c        ****     // If it is a endl
  48:main.c        ****     else
  49:main.c        ****     {
  50:main.c        ****         sprintf(StringBuff, "%d\n", sender);
  51:main.c        ****         
  52:main.c        ****     }
  53:main.c        ****     // Transmit string
  54:main.c        ****         UART_1_PutString(StringBuff);
  55:main.c        **** }
  56:main.c        **** 
  57:main.c        **** CY_ISR_PROTO(isr_Timer_Handler);
  58:main.c        **** 
  59:main.c        **** CY_ISR(isr_Timer_Handler)
  60:main.c        **** {
  36              		.loc 1 60 0
  37              		.cfi_startproc
  38              		@ args = 0, pretend = 0, frame = 0
  39              		@ frame_needed = 0, uses_anonymous_args = 0
  40 0000 F8B5     		push	{r3, r4, r5, r6, r7, lr}
  41              		.cfi_def_cfa_offset 24
  42              		.cfi_offset 3, -24
  43              		.cfi_offset 4, -20
  44              		.cfi_offset 5, -16
  45              		.cfi_offset 6, -12
  46              		.cfi_offset 7, -8
  47              		.cfi_offset 14, -4
  48              	.LVL0:
  61:main.c        **** float ek = 0;   // speed error
  62:main.c        **** float ekLast = 0;   // last error
  63:main.c        **** float pdK = 0;
  64:main.c        **** 
  65:main.c        ****     
  66:main.c        ****     
ARM GAS  C:\Users\diego\AppData\Local\Temp\ccfOsMvl.s 			page 3


  67:main.c        ****     
  68:main.c        ****     //Dato = ADC_DelSig_1_GetResult16();
  69:main.c        ****     
  70:main.c        ****     ek = REFERENCE - angulo1; // error
  49              		.loc 1 70 0
  50 0002 2B4C     		ldr	r4, .L10+24
  51 0004 2568     		ldr	r5, [r4]	@ float
  52 0006 2946     		mov	r1, r5
  53 0008 0020     		movs	r0, #0
  54 000a FFF7FEFF 		bl	__aeabi_fsub
  55              	.LVL1:
  56 000e 0646     		mov	r6, r0
  57              	.LVL2:
  71:main.c        ****     
  72:main.c        ****     ik += KI*ek; 
  58              		.loc 1 72 0
  59 0010 284B     		ldr	r3, .L10+28
  60 0012 1968     		ldr	r1, [r3]	@ float
  61 0014 FFF7FEFF 		bl	__aeabi_fmul
  62              	.LVL3:
  63 0018 6168     		ldr	r1, [r4, #4]	@ float
  64 001a FFF7FEFF 		bl	__aeabi_fadd
  65              	.LVL4:
  66 001e 6060     		str	r0, [r4, #4]	@ float
  73:main.c        ****     
  74:main.c        ****     
  75:main.c        ****     if (ik > MAXINTEGRAL){
  67              		.loc 1 75 0
  68 0020 6068     		ldr	r0, [r4, #4]	@ float
  69 0022 FFF7FEFF 		bl	__aeabi_f2d
  70              	.LVL5:
  71 0026 1CA3     		adr	r3, .L10
  72 0028 D3E90023 		ldrd	r2, [r3]
  73 002c FFF7FEFF 		bl	__aeabi_dcmpgt
  74              	.LVL6:
  75 0030 10B1     		cbz	r0, .L8
  76:main.c        ****         ik = MAXINTEGRAL;
  76              		.loc 1 76 0
  77 0032 214A     		ldr	r2, .L10+32
  78 0034 6260     		str	r2, [r4, #4]	@ float
  79 0036 0CE0     		b	.L4
  80              	.L8:
  77:main.c        ****     }
  78:main.c        ****     else if (ik < -MAXINTEGRAL){
  81              		.loc 1 78 0
  82 0038 1D4B     		ldr	r3, .L10+24
  83 003a 5868     		ldr	r0, [r3, #4]	@ float
  84 003c FFF7FEFF 		bl	__aeabi_f2d
  85              	.LVL7:
  86 0040 17A3     		adr	r3, .L10+8
  87 0042 D3E90023 		ldrd	r2, [r3]
  88 0046 FFF7FEFF 		bl	__aeabi_dcmplt
  89              	.LVL8:
  90 004a 10B1     		cbz	r0, .L4
  79:main.c        ****         ik = -MAXINTEGRAL;
  91              		.loc 1 79 0
  92 004c 1B4A     		ldr	r2, .L10+36
ARM GAS  C:\Users\diego\AppData\Local\Temp\ccfOsMvl.s 			page 4


  93 004e 184B     		ldr	r3, .L10+24
  94 0050 5A60     		str	r2, [r3, #4]	@ float
  95              	.L4:
  80:main.c        ****     }  
  81:main.c        ****     
  82:main.c        ****     dk = (ek-ekLast)/0.005; //5ms tiempo en el que se aplica el PID
  96              		.loc 1 82 0
  97 0052 3046     		mov	r0, r6
  98 0054 FFF7FEFF 		bl	__aeabi_f2d
  99              	.LVL9:
 100 0058 13A3     		adr	r3, .L10+16
 101 005a D3E90023 		ldrd	r2, [r3]
 102 005e FFF7FEFF 		bl	__aeabi_ddiv
 103              	.LVL10:
 104 0062 FFF7FEFF 		bl	__aeabi_d2f
 105              	.LVL11:
 106 0066 0646     		mov	r6, r0
 107 0068 114C     		ldr	r4, .L10+24
 108 006a A060     		str	r0, [r4, #8]	@ float
  83:main.c        ****     
  84:main.c        ****     
  85:main.c        ****     pdK = KP*angulo1 + dk*angulo1;
 109              		.loc 1 85 0
 110 006c 114B     		ldr	r3, .L10+28
 111 006e 5968     		ldr	r1, [r3, #4]	@ float
 112 0070 2846     		mov	r0, r5
 113 0072 FFF7FEFF 		bl	__aeabi_fmul
 114              	.LVL12:
 115 0076 0746     		mov	r7, r0
 116 0078 3146     		mov	r1, r6
 117 007a 2846     		mov	r0, r5
 118 007c FFF7FEFF 		bl	__aeabi_fmul
 119              	.LVL13:
 120 0080 0146     		mov	r1, r0
 121 0082 3846     		mov	r0, r7
 122 0084 FFF7FEFF 		bl	__aeabi_fadd
 123              	.LVL14:
  86:main.c        ****     
  87:main.c        ****     mk = pdK + ik;
 124              		.loc 1 87 0
 125 0088 6168     		ldr	r1, [r4, #4]	@ float
 126 008a FFF7FEFF 		bl	__aeabi_fadd
 127              	.LVL15:
 128 008e E060     		str	r0, [r4, #12]	@ float
 129              	.LVL16:
 130 0090 F8BD     		pop	{r3, r4, r5, r6, r7, pc}
 131              	.L11:
 132 0092 00BFAFF3 		.align	3
 132      0080
 133              	.L10:
 134 0098 CDCCCCCC 		.word	-858993459
 135 009c CCCC1240 		.word	1074973900
 136 00a0 CDCCCCCC 		.word	-858993459
 137 00a4 CCCC12C0 		.word	-1072509748
 138 00a8 7B14AE47 		.word	1202590843
 139 00ac E17A743F 		.word	1064598241
 140 00b0 00000000 		.word	.LANCHOR0
ARM GAS  C:\Users\diego\AppData\Local\Temp\ccfOsMvl.s 			page 5


 141 00b4 00000000 		.word	.LANCHOR1
 142 00b8 66669640 		.word	1083598438
 143 00bc 666696C0 		.word	-1063885210
 144              		.cfi_endproc
 145              	.LFE65:
 146              		.size	isr_Timer_Handler, .-isr_Timer_Handler
 147              		.global	__aeabi_f2iz
 148              		.section	.text.transmit,"ax",%progbits
 149              		.align	2
 150              		.global	transmit
 151              		.thumb
 152              		.thumb_func
 153              		.type	transmit, %function
 154              	transmit:
 155              	.LFB64:
  40:main.c        ****     char StringBuff[50];
 156              		.loc 1 40 0
 157              		.cfi_startproc
 158              		@ args = 0, pretend = 0, frame = 56
 159              		@ frame_needed = 0, uses_anonymous_args = 0
 160              	.LVL17:
 161 0000 10B5     		push	{r4, lr}
 162              		.cfi_def_cfa_offset 8
 163              		.cfi_offset 4, -8
 164              		.cfi_offset 14, -4
 165 0002 8EB0     		sub	sp, sp, #56
 166              		.cfi_def_cfa_offset 64
 167 0004 0C46     		mov	r4, r1
  42:main.c        ****     int sender = input;
 168              		.loc 1 42 0
 169 0006 0B49     		ldr	r1, .L16
 170              	.LVL18:
 171 0008 FFF7FEFF 		bl	__aeabi_fmul
 172              	.LVL19:
  43:main.c        ****     // Verify if we have to put a tab or endl
 173              		.loc 1 43 0
 174 000c FFF7FEFF 		bl	__aeabi_f2iz
 175              	.LVL20:
  45:main.c        ****         sprintf(StringBuff, "%d\t", sender);
 176              		.loc 1 45 0
 177 0010 012C     		cmp	r4, #1
 178 0012 05D1     		bne	.L13
  46:main.c        ****     // If it is a endl
 179              		.loc 1 46 0
 180 0014 0246     		mov	r2, r0
 181 0016 0849     		ldr	r1, .L16+4
 182 0018 01A8     		add	r0, sp, #4
 183              	.LVL21:
 184 001a FFF7FEFF 		bl	sprintf
 185              	.LVL22:
 186 001e 04E0     		b	.L14
 187              	.LVL23:
 188              	.L13:
  50:main.c        ****         
 189              		.loc 1 50 0
 190 0020 0246     		mov	r2, r0
 191 0022 0649     		ldr	r1, .L16+8
ARM GAS  C:\Users\diego\AppData\Local\Temp\ccfOsMvl.s 			page 6


 192 0024 01A8     		add	r0, sp, #4
 193              	.LVL24:
 194 0026 FFF7FEFF 		bl	sprintf
 195              	.LVL25:
 196              	.L14:
  54:main.c        **** }
 197              		.loc 1 54 0
 198 002a 01A8     		add	r0, sp, #4
 199 002c FFF7FEFF 		bl	UART_1_PutString
 200              	.LVL26:
  55:main.c        **** 
 201              		.loc 1 55 0
 202 0030 0EB0     		add	sp, sp, #56
 203              		.cfi_def_cfa_offset 8
 204              		@ sp needed
 205 0032 10BD     		pop	{r4, pc}
 206              	.LVL27:
 207              	.L17:
 208              		.align	2
 209              	.L16:
 210 0034 00007A44 		.word	1148846080
 211 0038 00000000 		.word	.LC0
 212 003c 04000000 		.word	.LC1
 213              		.cfi_endproc
 214              	.LFE64:
 215              		.size	transmit, .-transmit
 216              		.global	__aeabi_dmul
 217              		.global	__aeabi_dadd
 218              		.global	__aeabi_d2iz
 219              		.global	__aeabi_fcmpge
 220              		.section	.text.PWM_Controller,"ax",%progbits
 221              		.align	2
 222              		.global	PWM_Controller
 223              		.thumb
 224              		.thumb_func
 225              		.type	PWM_Controller, %function
 226              	PWM_Controller:
 227              	.LFB66:
  88:main.c        ****     
  89:main.c        ****     
  90:main.c        ****     ekLast = ek;
  91:main.c        ****       
  92:main.c        ****            
  93:main.c        **** 
  94:main.c        ****     
  95:main.c        **** }
  96:main.c        **** 
  97:main.c        **** void PWM_Controller(){
 228              		.loc 1 97 0
 229              		.cfi_startproc
 230              		@ args = 0, pretend = 0, frame = 0
 231              		@ frame_needed = 0, uses_anonymous_args = 0
 232 0000 38B5     		push	{r3, r4, r5, lr}
 233              		.cfi_def_cfa_offset 16
 234              		.cfi_offset 3, -16
 235              		.cfi_offset 4, -12
 236              		.cfi_offset 5, -8
ARM GAS  C:\Users\diego\AppData\Local\Temp\ccfOsMvl.s 			page 7


 237              		.cfi_offset 14, -4
  98:main.c        ****     
  99:main.c        ****     pwm = (int16) ((fabs(mk)/V_MAX)*N_MAX+0.5); // Use abs para enteros
 238              		.loc 1 99 0
 239 0002 1F4D     		ldr	r5, .L26+8
 240 0004 EC68     		ldr	r4, [r5, #12]	@ float
 241 0006 24F00040 		bic	r0, r4, #-2147483648
 242 000a FFF7FEFF 		bl	__aeabi_f2d
 243              	.LVL28:
 244 000e 0022     		movs	r2, #0
 245 0010 1C4B     		ldr	r3, .L26+12
 246 0012 FFF7FEFF 		bl	__aeabi_ddiv
 247              	.LVL29:
 248 0016 18A3     		adr	r3, .L26
 249 0018 D3E90023 		ldrd	r2, [r3]
 250 001c FFF7FEFF 		bl	__aeabi_dmul
 251              	.LVL30:
 252 0020 0022     		movs	r2, #0
 253 0022 194B     		ldr	r3, .L26+16
 254 0024 FFF7FEFF 		bl	__aeabi_dadd
 255              	.LVL31:
 256 0028 0022     		movs	r2, #0
 257 002a 184B     		ldr	r3, .L26+20
 258 002c FFF7FEFF 		bl	__aeabi_dadd
 259              	.LVL32:
 260 0030 FFF7FEFF 		bl	__aeabi_d2iz
 261              	.LVL33:
 262 0034 00B2     		sxth	r0, r0
 263 0036 2882     		strh	r0, [r5, #16]	@ movhi
 100:main.c        ****     /* Satura el valor del PWM */
 101:main.c        ****     if (pwm > PWM_MAX) {
 264              		.loc 1 101 0
 265 0038 B0F5FA7F 		cmp	r0, #500
 266 003c 02DB     		blt	.L19
 102:main.c        ****         pwm = PWM_MAX;
 267              		.loc 1 102 0
 268 003e 40F2F312 		movw	r2, #499
 269 0042 2A82     		strh	r2, [r5, #16]	@ movhi
 270              	.L19:
 103:main.c        ****     }
 104:main.c        ****     /* Define la dirección del puente H */
 105:main.c        ****     if (mk >= 0) {
 271              		.loc 1 105 0
 272 0044 0021     		movs	r1, #0
 273 0046 2046     		mov	r0, r4
 274 0048 FFF7FEFF 		bl	__aeabi_fcmpge
 275              	.LVL34:
 276 004c 30B1     		cbz	r0, .L24
 106:main.c        ****         H_Dir1_Write(1);
 277              		.loc 1 106 0
 278 004e 0120     		movs	r0, #1
 279 0050 FFF7FEFF 		bl	H_Dir1_Write
 280              	.LVL35:
 107:main.c        ****         H_Dir2_Write(0);
 281              		.loc 1 107 0
 282 0054 0020     		movs	r0, #0
 283 0056 FFF7FEFF 		bl	H_Dir2_Write
ARM GAS  C:\Users\diego\AppData\Local\Temp\ccfOsMvl.s 			page 8


 284              	.LVL36:
 285 005a 05E0     		b	.L22
 286              	.L24:
 108:main.c        ****         }
 109:main.c        ****     else {
 110:main.c        ****         H_Dir1_Write(0);
 287              		.loc 1 110 0
 288 005c 0020     		movs	r0, #0
 289 005e FFF7FEFF 		bl	H_Dir1_Write
 290              	.LVL37:
 111:main.c        ****         H_Dir2_Write(1);
 291              		.loc 1 111 0
 292 0062 0120     		movs	r0, #1
 293 0064 FFF7FEFF 		bl	H_Dir2_Write
 294              	.LVL38:
 295              	.L22:
 112:main.c        ****         }
 113:main.c        ****     PWM_WriteCompare(pwm); // escribe al generador de PWM
 296              		.loc 1 113 0
 297 0068 054B     		ldr	r3, .L26+8
 298 006a 187C     		ldrb	r0, [r3, #16]	@ zero_extendqisi2
 299 006c FFF7FEFF 		bl	PWM_WriteCompare
 300              	.LVL39:
 301 0070 38BD     		pop	{r3, r4, r5, pc}
 302              	.L27:
 303 0072 00BFAFF3 		.align	3
 303      0080
 304              	.L26:
 305 0078 00000000 		.word	0
 306 007c 00307F40 		.word	1082077184
 307 0080 00000000 		.word	.LANCHOR0
 308 0084 00001440 		.word	1075052544
 309 0088 0000F03F 		.word	1072693248
 310 008c 0000E03F 		.word	1071644672
 311              		.cfi_endproc
 312              	.LFE66:
 313              		.size	PWM_Controller, .-PWM_Controller
 314              		.global	__aeabi_i2d
 315              		.global	__aeabi_i2f
 316              		.section	.text.main,"ax",%progbits
 317              		.align	2
 318              		.global	main
 319              		.thumb
 320              		.thumb_func
 321              		.type	main, %function
 322              	main:
 323              	.LFB67:
 114:main.c        **** }
 115:main.c        **** int main(void)
 116:main.c        **** {
 324              		.loc 1 116 0
 325              		.cfi_startproc
 326              		@ args = 0, pretend = 0, frame = 0
 327              		@ frame_needed = 0, uses_anonymous_args = 0
 328 0000 38B5     		push	{r3, r4, r5, lr}
 329              		.cfi_def_cfa_offset 16
 330              		.cfi_offset 3, -16
ARM GAS  C:\Users\diego\AppData\Local\Temp\ccfOsMvl.s 			page 9


 331              		.cfi_offset 4, -12
 332              		.cfi_offset 5, -8
 333              		.cfi_offset 14, -4
 117:main.c        ****   	/* Initialize*/
 118:main.c        ****   	// Quadrature sensor
 119:main.c        ****     QuadDec_Sensor_Start(); 
 334              		.loc 1 119 0
 335 0002 FFF7FEFF 		bl	QuadDec_Sensor_Start
 336              	.LVL40:
 120:main.c        ****     QuadDec_Sensor_SetCounter(0);
 337              		.loc 1 120 0
 338 0006 0020     		movs	r0, #0
 339 0008 FFF7FEFF 		bl	QuadDec_Sensor_SetCounter
 340              	.LVL41:
 121:main.c        ****     QuadDec_Motor_Start(); 
 341              		.loc 1 121 0
 342 000c FFF7FEFF 		bl	QuadDec_Motor_Start
 343              	.LVL42:
 122:main.c        ****     QuadDec_Motor_SetCounter(0);
 344              		.loc 1 122 0
 345 0010 0020     		movs	r0, #0
 346 0012 FFF7FEFF 		bl	QuadDec_Motor_SetCounter
 347              	.LVL43:
 123:main.c        ****     
 124:main.c        ****     ADC_DelSig_1_Start();
 348              		.loc 1 124 0
 349 0016 FFF7FEFF 		bl	ADC_DelSig_1_Start
 350              	.LVL44:
 125:main.c        ****     ADC_DelSig_1_StartConvert();
 351              		.loc 1 125 0
 352 001a FFF7FEFF 		bl	ADC_DelSig_1_StartConvert
 353              	.LVL45:
 126:main.c        ****     ADC_DelSig_1_IsEndConversion(ADC_DelSig_1_WAIT_FOR_RESULT);
 354              		.loc 1 126 0
 355 001e 0020     		movs	r0, #0
 356 0020 FFF7FEFF 		bl	ADC_DelSig_1_IsEndConversion
 357              	.LVL46:
 127:main.c        ****     
 128:main.c        ****   	// UART
 129:main.c        ****   	UART_1_Start();  
 358              		.loc 1 129 0
 359 0024 FFF7FEFF 		bl	UART_1_Start
 360              	.LVL47:
 130:main.c        ****   	// interrupts
 131:main.c        ****     isr_Timer_StartEx(isr_Timer_Handler);
 361              		.loc 1 131 0
 362 0028 3548     		ldr	r0, .L34+16
 363 002a FFF7FEFF 		bl	isr_Timer_StartEx
 364              	.LVL48:
 132:main.c        ****     CyGlobalIntEnable; /* Enable global interrupts. */
 365              		.loc 1 132 0
 366              		.syntax unified
 367              	@ 132 "main.c" 1
 368 002e 62B6     		CPSIE   i
 369              	@ 0 "" 2
 370              	.LVL49:
 133:main.c        ****     
ARM GAS  C:\Users\diego\AppData\Local\Temp\ccfOsMvl.s 			page 10


 134:main.c        **** 
 135:main.c        ****     int c = 0;
 371              		.loc 1 135 0
 372              		.thumb
 373              		.syntax unified
 374 0030 0025     		movs	r5, #0
 375              	.LVL50:
 376              	.L32:
 136:main.c        ****     
 137:main.c        ****     /* Place your initialization/startup code here (e.g. MyInst_Start()) */
 138:main.c        ****     for(;;)
 139:main.c        ****     {
 140:main.c        ****         /* Place your application code here. */
 141:main.c        ****         //c = 0.1+c;
 142:main.c        ****         //CyDelay(1000u);
 143:main.c        ****         
 144:main.c        ****         cnt1 = QuadDec_Sensor_GetCounter();
 377              		.loc 1 144 0
 378 0032 FFF7FEFF 		bl	QuadDec_Sensor_GetCounter
 379              	.LVL51:
 380 0036 334C     		ldr	r4, .L34+20
 381 0038 6061     		str	r0, [r4, #20]
 145:main.c        ****       	angulo1 = 6.2832*cnt1/(2*4000.036624);
 382              		.loc 1 145 0
 383 003a FFF7FEFF 		bl	__aeabi_i2d
 384              	.LVL52:
 385 003e 2CA3     		adr	r3, .L34
 386 0040 D3E90023 		ldrd	r2, [r3]
 387 0044 FFF7FEFF 		bl	__aeabi_dmul
 388              	.LVL53:
 389 0048 2BA3     		adr	r3, .L34+8
 390 004a D3E90023 		ldrd	r2, [r3]
 391 004e FFF7FEFF 		bl	__aeabi_ddiv
 392              	.LVL54:
 393 0052 FFF7FEFF 		bl	__aeabi_d2f
 394              	.LVL55:
 395 0056 2060     		str	r0, [r4]	@ float
 146:main.c        ****         
 147:main.c        ****         cnt2 = QuadDec_Motor_GetCounter();
 396              		.loc 1 147 0
 397 0058 FFF7FEFF 		bl	QuadDec_Motor_GetCounter
 398              	.LVL56:
 399 005c A061     		str	r0, [r4, #24]
 148:main.c        ****       	angulo2 = 6.2832*cnt2/(2*4000.036624);
 400              		.loc 1 148 0
 401 005e FFF7FEFF 		bl	__aeabi_i2d
 402              	.LVL57:
 403 0062 23A3     		adr	r3, .L34
 404 0064 D3E90023 		ldrd	r2, [r3]
 405 0068 FFF7FEFF 		bl	__aeabi_dmul
 406              	.LVL58:
 407 006c 22A3     		adr	r3, .L34+8
 408 006e D3E90023 		ldrd	r2, [r3]
 409 0072 FFF7FEFF 		bl	__aeabi_ddiv
 410              	.LVL59:
 411 0076 FFF7FEFF 		bl	__aeabi_d2f
 412              	.LVL60:
ARM GAS  C:\Users\diego\AppData\Local\Temp\ccfOsMvl.s 			page 11


 413 007a E061     		str	r0, [r4, #28]	@ float
 149:main.c        ****         
 150:main.c        ****         
 151:main.c        ****         adcMeas = ADC_DelSig_1_GetResult32();
 414              		.loc 1 151 0
 415 007c FFF7FEFF 		bl	ADC_DelSig_1_GetResult32
 416              	.LVL61:
 417 0080 FFF7FEFF 		bl	__aeabi_i2f
 418              	.LVL62:
 419 0084 2062     		str	r0, [r4, #32]	@ float
 152:main.c        ****         Tension = (adcMeas * 5) / 65536;
 420              		.loc 1 152 0
 421 0086 2049     		ldr	r1, .L34+24
 422 0088 FFF7FEFF 		bl	__aeabi_fmul
 423              	.LVL63:
 424 008c 4FF05E51 		mov	r1, #931135488
 425 0090 FFF7FEFF 		bl	__aeabi_fmul
 426              	.LVL64:
 427 0094 6062     		str	r0, [r4, #36]	@ float
 153:main.c        ****         
 154:main.c        ****       	transmit(angulo1, 1); // Tab
 428              		.loc 1 154 0
 429 0096 0121     		movs	r1, #1
 430 0098 2068     		ldr	r0, [r4]	@ float
 431 009a FFF7FEFF 		bl	transmit
 432              	.LVL65:
 155:main.c        ****         transmit(angulo2, 1); // Enter
 433              		.loc 1 155 0
 434 009e 0121     		movs	r1, #1
 435 00a0 E069     		ldr	r0, [r4, #28]	@ float
 436 00a2 FFF7FEFF 		bl	transmit
 437              	.LVL66:
 156:main.c        ****         
 157:main.c        ****               
 158:main.c        ****         
 159:main.c        ****         c++;
 438              		.loc 1 159 0
 439 00a6 0135     		adds	r5, r5, #1
 440              	.LVL67:
 160:main.c        ****         if((c > 30 && c < 40) || (c > 1500 && c < 1510))
 441              		.loc 1 160 0
 442 00a8 A5F11F03 		sub	r3, r5, #31
 443 00ac 082B     		cmp	r3, #8
 444 00ae 03D9     		bls	.L29
 445              		.loc 1 160 0 is_stmt 0 discriminator 1
 446 00b0 A5F2DD53 		subw	r3, r5, #1501
 447 00b4 082B     		cmp	r3, #8
 448 00b6 08D8     		bhi	.L30
 449              	.L29:
 161:main.c        ****         {
 162:main.c        ****             Pin_2_Write(1u);
 450              		.loc 1 162 0 is_stmt 1
 451 00b8 0120     		movs	r0, #1
 452 00ba FFF7FEFF 		bl	Pin_2_Write
 453              	.LVL68:
 163:main.c        ****             transmit(1,1);
 454              		.loc 1 163 0
ARM GAS  C:\Users\diego\AppData\Local\Temp\ccfOsMvl.s 			page 12


 455 00be 0121     		movs	r1, #1
 456 00c0 4FF07E50 		mov	r0, #1065353216
 457 00c4 FFF7FEFF 		bl	transmit
 458              	.LVL69:
 459 00c8 06E0     		b	.L31
 460              	.L30:
 164:main.c        ****         }
 165:main.c        ****         else
 166:main.c        ****         {
 167:main.c        ****             Pin_2_Write(0u);
 461              		.loc 1 167 0
 462 00ca 0020     		movs	r0, #0
 463 00cc FFF7FEFF 		bl	Pin_2_Write
 464              	.LVL70:
 168:main.c        ****             transmit(0,1);
 465              		.loc 1 168 0
 466 00d0 0121     		movs	r1, #1
 467 00d2 0020     		movs	r0, #0
 468 00d4 FFF7FEFF 		bl	transmit
 469              	.LVL71:
 470              	.L31:
 169:main.c        ****         }
 170:main.c        ****             
 171:main.c        ****             
 172:main.c        ****         transmit(Tension, 0);
 471              		.loc 1 172 0
 472 00d8 0021     		movs	r1, #0
 473 00da 0A4B     		ldr	r3, .L34+20
 474 00dc 586A     		ldr	r0, [r3, #36]	@ float
 475 00de FFF7FEFF 		bl	transmit
 476              	.LVL72:
 173:main.c        ****     
 174:main.c        ****       	CyDelay(10u);
 477              		.loc 1 174 0
 478 00e2 0A20     		movs	r0, #10
 479 00e4 FFF7FEFF 		bl	CyDelay
 480              	.LVL73:
 175:main.c        ****     }
 481              		.loc 1 175 0
 482 00e8 A3E7     		b	.L32
 483              	.L35:
 484 00ea 00BFAFF3 		.align	3
 484      0080
 485              	.L34:
 486 00f0 A7E8482E 		.word	776530087
 487 00f4 FF211940 		.word	1075388927
 488 00f8 7F8461C0 		.word	-1067350913
 489 00fc 1240BF40 		.word	1086275602
 490 0100 00000000 		.word	isr_Timer_Handler
 491 0104 00000000 		.word	.LANCHOR0
 492 0108 0000A040 		.word	1084227584
 493              		.cfi_endproc
 494              	.LFE67:
 495              		.size	main, .-main
 496              		.global	mk
 497              		.global	dk
 498              		.global	ik
ARM GAS  C:\Users\diego\AppData\Local\Temp\ccfOsMvl.s 			page 13


 499              		.global	KI
 500              		.global	KP
 501              		.comm	KD,4,4
 502              		.global	Tension
 503              		.global	adcMeas
 504              		.global	angulo2
 505              		.global	cnt2
 506              		.global	angulo1
 507              		.global	cnt1
 508              		.global	pwm
 509              		.data
 510              		.align	2
 511              		.set	.LANCHOR1,. + 0
 512              		.type	KI, %object
 513              		.size	KI, 4
 514              	KI:
 515 0000 C1CA213E 		.word	1042401985
 516              		.type	KP, %object
 517              		.size	KP, 4
 518              	KP:
 519 0004 3D0A573E 		.word	1045891645
 520              		.section	.rodata.str1.4,"aMS",%progbits,1
 521              		.align	2
 522              	.LC0:
 523 0000 25640900 		.ascii	"%d\011\000"
 524              	.LC1:
 525 0004 25640A00 		.ascii	"%d\012\000"
 526              		.bss
 527              		.align	2
 528              		.set	.LANCHOR0,. + 0
 529              		.type	angulo1, %object
 530              		.size	angulo1, 4
 531              	angulo1:
 532 0000 00000000 		.space	4
 533              		.type	ik, %object
 534              		.size	ik, 4
 535              	ik:
 536 0004 00000000 		.space	4
 537              		.type	dk, %object
 538              		.size	dk, 4
 539              	dk:
 540 0008 00000000 		.space	4
 541              		.type	mk, %object
 542              		.size	mk, 4
 543              	mk:
 544 000c 00000000 		.space	4
 545              		.type	pwm, %object
 546              		.size	pwm, 2
 547              	pwm:
 548 0010 0000     		.space	2
 549 0012 0000     		.space	2
 550              		.type	cnt1, %object
 551              		.size	cnt1, 4
 552              	cnt1:
 553 0014 00000000 		.space	4
 554              		.type	cnt2, %object
 555              		.size	cnt2, 4
ARM GAS  C:\Users\diego\AppData\Local\Temp\ccfOsMvl.s 			page 14


 556              	cnt2:
 557 0018 00000000 		.space	4
 558              		.type	angulo2, %object
 559              		.size	angulo2, 4
 560              	angulo2:
 561 001c 00000000 		.space	4
 562              		.type	adcMeas, %object
 563              		.size	adcMeas, 4
 564              	adcMeas:
 565 0020 00000000 		.space	4
 566              		.type	Tension, %object
 567              		.size	Tension, 4
 568              	Tension:
 569 0024 00000000 		.space	4
 570              		.text
 571              	.Letext0:
 572              		.file 2 "c:\\program files (x86)\\cypress\\psoc creator\\4.2\\psoc creator\\import\\gnu\\arm\\5.4.
 573              		.file 3 "c:\\program files (x86)\\cypress\\psoc creator\\4.2\\psoc creator\\import\\gnu\\arm\\5.4.
 574              		.file 4 "Generated_Source\\PSoC5/cytypes.h"
 575              		.file 5 "Generated_Source\\PSoC5/core_cm3.h"
 576              		.file 6 "c:\\program files (x86)\\cypress\\psoc creator\\4.2\\psoc creator\\import\\gnu\\arm\\5.4.
 577              		.file 7 "Generated_Source\\PSoC5/UART_1.h"
 578              		.file 8 "Generated_Source\\PSoC5/H_Dir1.h"
 579              		.file 9 "Generated_Source\\PSoC5/H_Dir2.h"
 580              		.file 10 "Generated_Source\\PSoC5/PWM.h"
 581              		.file 11 "Generated_Source\\PSoC5/QuadDec_Sensor.h"
 582              		.file 12 "Generated_Source\\PSoC5/QuadDec_Motor.h"
 583              		.file 13 "Generated_Source\\PSoC5/ADC_DelSig_1.h"
 584              		.file 14 "Generated_Source\\PSoC5/isr_Timer.h"
 585              		.file 15 "Generated_Source\\PSoC5/Pin_2.h"
 586              		.file 16 "Generated_Source\\PSoC5/CyLib.h"